

Microchip MPLAB XC8 Assembler V2.32 build 20210201212658 
                                                                                               Sun Aug 01 15:25:57 2021

Microchip MPLAB XC8 C Compiler v2.32 (Free license) build 20210201212658 Og1 
     1                           	processor	18F4520
     2                           	fnconf	rparam,??,?,0
     3                           	pagewidth 120
     4                           	opt	flic
     5                           	psect	idataBANK0,global,class=CODE,delta=1,noexec
     6                           	psect	idataBANK1,global,class=CODE,delta=1,noexec
     7                           	psect	idataBANK2,global,class=CODE,delta=1,noexec
     8                           	psect	idataBANK3,global,class=CODE,delta=1,noexec
     9                           	psect	smallconst,global,reloc=2,class=SMALLCONST,delta=1,noexec
    10                           	psect	cinit,global,reloc=2,class=CODE,delta=1
    11                           	psect	bssCOMRAM,global,class=COMRAM,space=1,delta=1,lowdata,noexec
    12                           	psect	dataBANK0,global,class=BANK0,space=1,delta=1,lowdata,noexec
    13                           	psect	dataBANK1,global,class=BANK1,space=1,delta=1,lowdata,noexec
    14                           	psect	dataBANK2,global,class=BANK2,space=1,delta=1,lowdata,noexec
    15                           	psect	dataBANK3,global,class=BANK3,space=1,delta=1,lowdata,noexec
    16                           	psect	cstackBANK1,global,class=BANK1,space=1,delta=1,lowdata,noexec
    17                           	psect	cstackBANK0,global,class=BANK0,space=1,delta=1,lowdata,noexec
    18                           	psect	cstackCOMRAM,global,class=COMRAM,space=1,delta=1,lowdata,noexec
    19                           	psect	text0,global,reloc=2,class=CODE,delta=1
    20                           	psect	text1,global,reloc=2,class=CODE,delta=1
    21                           	psect	text2,global,reloc=2,class=CODE,delta=1
    22                           	psect	text3,global,reloc=2,class=CODE,delta=1,group=1
    23                           	psect	text4,global,reloc=2,class=CODE,delta=1
    24                           	psect	text5,global,reloc=2,class=CODE,delta=1
    25                           	psect	text6,global,reloc=2,class=CODE,delta=1
    26                           	psect	text7,global,reloc=2,class=CODE,delta=1
    27                           	psect	text8,global,reloc=2,class=CODE,delta=1
    28                           	psect	text9,global,reloc=2,class=CODE,delta=1
    29                           	psect	text10,global,reloc=2,class=CODE,delta=1
    30                           	psect	text11,global,reloc=2,class=CODE,delta=1,group=1
    31                           	psect	text12,global,reloc=2,class=CODE,delta=1,group=1
    32                           	psect	text13,global,reloc=2,class=CODE,delta=1
    33                           	psect	text14,global,reloc=2,class=CODE,delta=1
    34                           	psect	text15,global,reloc=2,class=CODE,delta=1
    35                           	psect	text16,global,reloc=2,class=CODE,delta=1
    36                           	psect	text17,global,reloc=2,class=CODE,delta=1
    37                           	psect	text18,global,reloc=2,class=CODE,delta=1
    38                           	psect	text19,global,reloc=2,class=CODE,delta=1
    39                           	psect	text20,global,reloc=2,class=CODE,delta=1
    40                           	psect	text21,global,reloc=2,class=CODE,delta=1
    41                           	psect	text22,global,reloc=2,class=CODE,delta=1
    42                           	psect	text23,global,reloc=2,class=CODE,delta=1
    43                           	psect	text24,global,reloc=2,class=CODE,delta=1
    44                           	psect	text25,global,reloc=2,class=CODE,delta=1
    45                           	psect	text26,global,reloc=2,class=CODE,delta=1,group=1
    46                           	psect	text27,global,reloc=2,class=CODE,delta=1,group=1
    47                           	psect	intsave_regs,global,class=BIGRAM,space=1,delta=1,noexec
    48                           	psect	rparam,global,class=COMRAM,space=1,delta=1,noexec
    49                           	psect	idloc,global,abs,ovrld,class=IDLOC,space=5,delta=1,noexec
    50                           	psect	config,global,abs,ovrld,class=CONFIG,space=4,delta=1,noexec
    51  0000                     
    52                           ; Version 2.20
    53                           ; Generated 12/02/2020 GMT
    54                           ; 
    55                           ; Copyright © 2020, Microchip Technology Inc. and its subsidiaries ("Microchip")
    56                           ; All rights reserved.
    57                           ; 
    58                           ; This software is developed by Microchip Technology Inc. and its subsidiaries ("Microch
      +                          ip").
    59                           ; 
    60                           ; Redistribution and use in source and binary forms, with or without modification, are
    61                           ; permitted provided that the following conditions are met:
    62                           ; 
    63                           ;     1. Redistributions of source code must retain the above copyright notice, this lis
      +                          t of
    64                           ;        conditions and the following disclaimer.
    65                           ; 
    66                           ;     2. Redistributions in binary form must reproduce the above copyright notice, this 
      +                          list
    67                           ;        of conditions and the following disclaimer in the documentation and/or other
    68                           ;        materials provided with the distribution.
    69                           ; 
    70                           ;     3. Microchip's name may not be used to endorse or promote products derived from th
      +                          is
    71                           ;        software without specific prior written permission.
    72                           ; 
    73                           ; THIS SOFTWARE IS PROVIDED BY MICROCHIP "AS IS" AND ANY EXPRESS OR IMPLIED WARRANTIES,
    74                           ; INCLUDING, BUT NOT LIMITED TO, THE IMPLIED WARRANTIES OF MERCHANTABILITY AND FITNESS F
      +                          OR
    75                           ; PURPOSE ARE DISCLAIMED.  IN NO EVENT SHALL MICROCHIP BE LIABLE FOR ANY DIRECT, INDIREC
      +                          T,
    76                           ; INCIDENTAL, SPECIAL, EXEMPLARY, OR CONSEQUENTIAL DAMAGES (INCLUDING BUT NOT LIMITED TO
    77                           ; PROCUREMENT OF SUBSTITUTE GOODS OR SERVICES; LOSS OF USE, DATA OR PROFITS; OR BUSINESS
    78                           ; INTERRUPTION) HOWSOEVER CAUSED AND ON ANY THEORY OF LIABILITY, WHETHER IN CONTRACT, ST
      +                          RICT
    79                           ; LIABILITY, OR TORT (INCLUDING NEGLIGENCE OR OTHERWISE) ARISING IN ANY WAY OUT OF THE U
      +                          SE OF
    80                           ; THIS SOFTWARE, EVEN IF ADVISED OF THE POSSIBILITY OF SUCH DAMAGE.
    81                           ; 
    82                           ; 
    83                           ; Code-generator required, PIC18F4520 Definitions
    84                           ; 
    85                           ; SFR Addresses
    86  0000                     
    87                           	psect	idataBANK0
    88  0024B2                     __pidataBANK0:
    89                           	callstack 0
    90                           
    91                           ;initializer for petInicio@F2420
    92  0024B2  00                 	db	0
    93  0024B3  00                 	db	0
    94  0024B4  00                 	db	0
    95  0024B5  01                 	db	1
    96  0024B6  03                 	db	3
    97  0024B7  06                 	db	6
    98  0024B8  0C                 	db	12
    99  0024B9  0C                 	db	12
   100  0024BA  00                 	db	0
   101  0024BB  00                 	db	0
   102  0024BC  1F                 	db	31
   103  0024BD  1F                 	db	31
   104  0024BE  00                 	db	0
   105  0024BF  00                 	db	0
   106  0024C0  00                 	db	0
   107  0024C1  00                 	db	0
   108  0024C2  00                 	db	0
   109  0024C3  00                 	db	0
   110  0024C4  00                 	db	0
   111  0024C5  10                 	db	16
   112  0024C6  18                 	db	24
   113  0024C7  0C                 	db	12
   114  0024C8  06                 	db	6
   115  0024C9  06                 	db	6
   116  0024CA  0C                 	db	12
   117  0024CB  0C                 	db	12
   118  0024CC  0C                 	db	12
   119  0024CD  0C                 	db	12
   120  0024CE  0C                 	db	12
   121  0024CF  06                 	db	6
   122  0024D0  03                 	db	3
   123  0024D1  01                 	db	1
   124  0024D2  1B                 	db	27
   125  0024D3  1B                 	db	27
   126  0024D4  00                 	db	0
   127  0024D5  00                 	db	0
   128  0024D6  00                 	db	0
   129  0024D7  00                 	db	0
   130  0024D8  1F                 	db	31
   131  0024D9  1F                 	db	31
   132  0024DA  06                 	db	6
   133  0024DB  06                 	db	6
   134  0024DC  06                 	db	6
   135  0024DD  06                 	db	6
   136  0024DE  06                 	db	6
   137  0024DF  0C                 	db	12
   138  0024E0  18                 	db	24
   139  0024E1  10                 	db	16
   140                           
   141                           	psect	idataBANK1
   142  0023B2                     __pidataBANK1:
   143                           	callstack 0
   144                           
   145                           ;initializer for petNao@F2430
   146  0023B2  00                 	db	0
   147  0023B3  00                 	db	0
   148  0023B4  00                 	db	0
   149  0023B5  01                 	db	1
   150  0023B6  03                 	db	3
   151  0023B7  06                 	db	6
   152  0023B8  0C                 	db	12
   153  0023B9  0C                 	db	12
   154  0023BA  00                 	db	0
   155  0023BB  00                 	db	0
   156  0023BC  1F                 	db	31
   157  0023BD  1F                 	db	31
   158  0023BE  00                 	db	0
   159  0023BF  00                 	db	0
   160  0023C0  03                 	db	3
   161  0023C1  03                 	db	3
   162  0023C2  00                 	db	0
   163  0023C3  00                 	db	0
   164  0023C4  00                 	db	0
   165  0023C5  10                 	db	16
   166  0023C6  18                 	db	24
   167  0023C7  0C                 	db	12
   168  0023C8  06                 	db	6
   169  0023C9  06                 	db	6
   170  0023CA  0C                 	db	12
   171  0023CB  0C                 	db	12
   172  0023CC  0C                 	db	12
   173  0023CD  0C                 	db	12
   174  0023CE  06                 	db	6
   175  0023CF  03                 	db	3
   176  0023D0  01                 	db	1
   177  0023D1  00                 	db	0
   178  0023D2  00                 	db	0
   179  0023D3  03                 	db	3
   180  0023D4  00                 	db	0
   181  0023D5  00                 	db	0
   182  0023D6  00                 	db	0
   183  0023D7  1F                 	db	31
   184  0023D8  1F                 	db	31
   185  0023D9  00                 	db	0
   186  0023DA  06                 	db	6
   187  0023DB  1E                 	db	30
   188  0023DC  06                 	db	6
   189  0023DD  06                 	db	6
   190  0023DE  0C                 	db	12
   191  0023DF  18                 	db	24
   192  0023E0  10                 	db	16
   193  0023E1  00                 	db	0
   194                           
   195                           ;initializer for petInicio@F2422
   196  0023E2  00                 	db	0
   197  0023E3  00                 	db	0
   198  0023E4  00                 	db	0
   199  0023E5  00                 	db	0
   200  0023E6  00                 	db	0
   201  0023E7  00                 	db	0
   202  0023E8  03                 	db	3
   203  0023E9  06                 	db	6
   204  0023EA  00                 	db	0
   205  0023EB  00                 	db	0
   206  0023EC  00                 	db	0
   207  0023ED  00                 	db	0
   208  0023EE  00                 	db	0
   209  0023EF  1F                 	db	31
   210  0023F0  1F                 	db	31
   211  0023F1  00                 	db	0
   212  0023F2  00                 	db	0
   213  0023F3  00                 	db	0
   214  0023F4  00                 	db	0
   215  0023F5  00                 	db	0
   216  0023F6  00                 	db	0
   217  0023F7  00                 	db	0
   218  0023F8  18                 	db	24
   219  0023F9  0C                 	db	12
   220  0023FA  0C                 	db	12
   221  0023FB  18                 	db	24
   222  0023FC  18                 	db	24
   223  0023FD  18                 	db	24
   224  0023FE  18                 	db	24
   225  0023FF  0C                 	db	12
   226  002400  07                 	db	7
   227  002401  03                 	db	3
   228  002402  00                 	db	0
   229  002403  1B                 	db	27
   230  002404  1B                 	db	27
   231  002405  00                 	db	0
   232  002406  00                 	db	0
   233  002407  00                 	db	0
   234  002408  1F                 	db	31
   235  002409  1F                 	db	31
   236  00240A  06                 	db	6
   237  00240B  03                 	db	3
   238  00240C  03                 	db	3
   239  00240D  03                 	db	3
   240  00240E  03                 	db	3
   241  00240F  06                 	db	6
   242  002410  1C                 	db	28
   243  002411  18                 	db	24
   244                           
   245                           	psect	idataBANK2
   246  001F72                     __pidataBANK2:
   247                           	callstack 0
   248                           
   249                           ;initializer for main@F2464
   250  001F72  00                 	db	0
   251  001F73  00                 	db	0
   252  001F74  00                 	db	0
   253  001F75  01                 	db	1
   254  001F76  03                 	db	3
   255  001F77  06                 	db	6
   256  001F78  0C                 	db	12
   257  001F79  0C                 	db	12
   258  001F7A  00                 	db	0
   259  001F7B  00                 	db	0
   260  001F7C  1F                 	db	31
   261  001F7D  1F                 	db	31
   262  001F7E  00                 	db	0
   263  001F7F  00                 	db	0
   264  001F80  00                 	db	0
   265  001F81  00                 	db	0
   266  001F82  00                 	db	0
   267  001F83  00                 	db	0
   268  001F84  00                 	db	0
   269  001F85  10                 	db	16
   270  001F86  18                 	db	24
   271  001F87  0C                 	db	12
   272  001F88  06                 	db	6
   273  001F89  06                 	db	6
   274  001F8A  0C                 	db	12
   275  001F8B  0C                 	db	12
   276  001F8C  0C                 	db	12
   277  001F8D  0C                 	db	12
   278  001F8E  0C                 	db	12
   279  001F8F  06                 	db	6
   280  001F90  03                 	db	3
   281  001F91  01                 	db	1
   282  001F92  1B                 	db	27
   283  001F93  1B                 	db	27
   284  001F94  00                 	db	0
   285  001F95  00                 	db	0
   286  001F96  00                 	db	0
   287  001F97  00                 	db	0
   288  001F98  1F                 	db	31
   289  001F99  1F                 	db	31
   290  001F9A  06                 	db	6
   291  001F9B  06                 	db	6
   292  001F9C  06                 	db	6
   293  001F9D  06                 	db	6
   294  001F9E  06                 	db	6
   295  001F9F  0C                 	db	12
   296  001FA0  18                 	db	24
   297  001FA1  10                 	db	16
   298                           
   299                           ;initializer for petX@F2453
   300  001FA2  00                 	db	0
   301  001FA3  00                 	db	0
   302  001FA4  00                 	db	0
   303  001FA5  01                 	db	1
   304  001FA6  03                 	db	3
   305  001FA7  06                 	db	6
   306  001FA8  0D                 	db	13
   307  001FA9  0C                 	db	12
   308  001FAA  00                 	db	0
   309  001FAB  00                 	db	0
   310  001FAC  1F                 	db	31
   311  001FAD  1F                 	db	31
   312  001FAE  00                 	db	0
   313  001FAF  00                 	db	0
   314  001FB0  0A                 	db	10
   315  001FB1  11                 	db	17
   316  001FB2  00                 	db	0
   317  001FB3  00                 	db	0
   318  001FB4  00                 	db	0
   319  001FB5  10                 	db	16
   320  001FB6  18                 	db	24
   321  001FB7  0C                 	db	12
   322  001FB8  16                 	db	22
   323  001FB9  06                 	db	6
   324  001FBA  0D                 	db	13
   325  001FBB  0C                 	db	12
   326  001FBC  0C                 	db	12
   327  001FBD  0C                 	db	12
   328  001FBE  0C                 	db	12
   329  001FBF  06                 	db	6
   330  001FC0  03                 	db	3
   331  001FC1  01                 	db	1
   332  001FC2  00                 	db	0
   333  001FC3  00                 	db	0
   334  001FC4  0E                 	db	14
   335  001FC5  11                 	db	17
   336  001FC6  11                 	db	17
   337  001FC7  00                 	db	0
   338  001FC8  1F                 	db	31
   339  001FC9  1F                 	db	31
   340  001FCA  16                 	db	22
   341  001FCB  06                 	db	6
   342  001FCC  06                 	db	6
   343  001FCD  06                 	db	6
   344  001FCE  06                 	db	6
   345  001FCF  0C                 	db	12
   346  001FD0  18                 	db	24
   347  001FD1  10                 	db	16
   348                           
   349                           ;initializer for petFome@F2444
   350  001FD2  00                 	db	0
   351  001FD3  00                 	db	0
   352  001FD4  00                 	db	0
   353  001FD5  01                 	db	1
   354  001FD6  03                 	db	3
   355  001FD7  06                 	db	6
   356  001FD8  0C                 	db	12
   357  001FD9  0C                 	db	12
   358  001FDA  00                 	db	0
   359  001FDB  00                 	db	0
   360  001FDC  00                 	db	0
   361  001FDD  1F                 	db	31
   362  001FDE  1F                 	db	31
   363  001FDF  00                 	db	0
   364  001FE0  1B                 	db	27
   365  001FE1  1B                 	db	27
   366  001FE2  00                 	db	0
   367  001FE3  00                 	db	0
   368  001FE4  00                 	db	0
   369  001FE5  10                 	db	16
   370  001FE6  18                 	db	24
   371  001FE7  0C                 	db	12
   372  001FE8  06                 	db	6
   373  001FE9  06                 	db	6
   374  001FEA  0C                 	db	12
   375  001FEB  0C                 	db	12
   376  001FEC  0C                 	db	12
   377  001FED  0C                 	db	12
   378  001FEE  0C                 	db	12
   379  001FEF  06                 	db	6
   380  001FF0  03                 	db	3
   381  001FF1  01                 	db	1
   382  001FF2  00                 	db	0
   383  001FF3  11                 	db	17
   384  001FF4  11                 	db	17
   385  001FF5  0E                 	db	14
   386  001FF6  06                 	db	6
   387  001FF7  00                 	db	0
   388  001FF8  1F                 	db	31
   389  001FF9  1F                 	db	31
   390  001FFA  06                 	db	6
   391  001FFB  06                 	db	6
   392  001FFC  06                 	db	6
   393  001FFD  06                 	db	6
   394  001FFE  06                 	db	6
   395  001FFF  0C                 	db	12
   396  002000  18                 	db	24
   397  002001  10                 	db	16
   398                           
   399                           ;initializer for petFome@F2442
   400  002002  00                 	db	0
   401  002003  00                 	db	0
   402  002004  00                 	db	0
   403  002005  01                 	db	1
   404  002006  03                 	db	3
   405  002007  06                 	db	6
   406  002008  0C                 	db	12
   407  002009  0C                 	db	12
   408  00200A  00                 	db	0
   409  00200B  00                 	db	0
   410  00200C  00                 	db	0
   411  00200D  1F                 	db	31
   412  00200E  1F                 	db	31
   413  00200F  00                 	db	0
   414  002010  1B                 	db	27
   415  002011  12                 	db	18
   416  002012  00                 	db	0
   417  002013  00                 	db	0
   418  002014  00                 	db	0
   419  002015  10                 	db	16
   420  002016  18                 	db	24
   421  002017  0C                 	db	12
   422  002018  04                 	db	4
   423  002019  04                 	db	4
   424  00201A  0C                 	db	12
   425  00201B  0C                 	db	12
   426  00201C  0C                 	db	12
   427  00201D  0C                 	db	12
   428  00201E  0C                 	db	12
   429  00201F  06                 	db	6
   430  002020  03                 	db	3
   431  002021  01                 	db	1
   432  002022  00                 	db	0
   433  002023  00                 	db	0
   434  002024  0E                 	db	14
   435  002025  1F                 	db	31
   436  002026  0E                 	db	14
   437  002027  00                 	db	0
   438  002028  1F                 	db	31
   439  002029  1F                 	db	31
   440  00202A  0E                 	db	14
   441  00202B  15                 	db	21
   442  00202C  1F                 	db	31
   443  00202D  17                 	db	23
   444  00202E  0E                 	db	14
   445  00202F  00                 	db	0
   446  002030  18                 	db	24
   447  002031  10                 	db	16
   448                           
   449                           ;initializer for petNao@F2432
   450  002032  00                 	db	0
   451  002033  00                 	db	0
   452  002034  00                 	db	0
   453  002035  01                 	db	1
   454  002036  03                 	db	3
   455  002037  06                 	db	6
   456  002038  0C                 	db	12
   457  002039  0C                 	db	12
   458  00203A  00                 	db	0
   459  00203B  00                 	db	0
   460  00203C  1F                 	db	31
   461  00203D  1F                 	db	31
   462  00203E  00                 	db	0
   463  00203F  00                 	db	0
   464  002040  18                 	db	24
   465  002041  18                 	db	24
   466  002042  00                 	db	0
   467  002043  00                 	db	0
   468  002044  00                 	db	0
   469  002045  10                 	db	16
   470  002046  18                 	db	24
   471  002047  0C                 	db	12
   472  002048  06                 	db	6
   473  002049  06                 	db	6
   474  00204A  0C                 	db	12
   475  00204B  0F                 	db	15
   476  00204C  0C                 	db	12
   477  00204D  0C                 	db	12
   478  00204E  06                 	db	6
   479  00204F  03                 	db	3
   480  002050  01                 	db	1
   481  002051  00                 	db	0
   482  002052  00                 	db	0
   483  002053  18                 	db	24
   484  002054  00                 	db	0
   485  002055  00                 	db	0
   486  002056  00                 	db	0
   487  002057  1F                 	db	31
   488  002058  1F                 	db	31
   489  002059  00                 	db	0
   490  00205A  06                 	db	6
   491  00205B  06                 	db	6
   492  00205C  06                 	db	6
   493  00205D  06                 	db	6
   494  00205E  0C                 	db	12
   495  00205F  18                 	db	24
   496  002060  10                 	db	16
   497  002061  00                 	db	0
   498                           
   499                           	psect	idataBANK3
   500  0020F8                     __pidataBANK3:
   501                           	callstack 0
   502                           
   503                           ;initializer for petFun@F2438
   504  0020F8  00                 	db	0
   505  0020F9  00                 	db	0
   506  0020FA  00                 	db	0
   507  0020FB  01                 	db	1
   508  0020FC  03                 	db	3
   509  0020FD  06                 	db	6
   510  0020FE  0C                 	db	12
   511  0020FF  0C                 	db	12
   512  002100  00                 	db	0
   513  002101  00                 	db	0
   514  002102  1F                 	db	31
   515  002103  1F                 	db	31
   516  002104  00                 	db	0
   517  002105  00                 	db	0
   518  002106  1B                 	db	27
   519  002107  1B                 	db	27
   520  002108  00                 	db	0
   521  002109  00                 	db	0
   522  00210A  00                 	db	0
   523  00210B  10                 	db	16
   524  00210C  0C                 	db	12
   525  00210D  04                 	db	4
   526  00210E  07                 	db	7
   527  00210F  08                 	db	8
   528  002110  00                 	db	0
   529  002111  00                 	db	0
   530  002112  00                 	db	0
   531  002113  00                 	db	0
   532  002114  00                 	db	0
   533  002115  06                 	db	6
   534  002116  19                 	db	25
   535  002117  00                 	db	0
   536  002118  0C                 	db	12
   537  002119  0C                 	db	12
   538  00211A  0C                 	db	12
   539  00211B  0C                 	db	12
   540  00211C  0C                 	db	12
   541  00211D  06                 	db	6
   542  00211E  03                 	db	3
   543  00211F  01                 	db	1
   544  002120  00                 	db	0
   545  002121  00                 	db	0
   546  002122  11                 	db	17
   547  002123  11                 	db	17
   548  002124  0E                 	db	14
   549  002125  00                 	db	0
   550  002126  1F                 	db	31
   551  002127  1F                 	db	31
   552  002128  07                 	db	7
   553  002129  08                 	db	8
   554  00212A  07                 	db	7
   555  00212B  08                 	db	8
   556  00212C  07                 	db	7
   557  00212D  08                 	db	8
   558  00212E  17                 	db	23
   559  00212F  10                 	db	16
   560  002130  10                 	db	16
   561  002131  00                 	db	0
   562  002132  10                 	db	16
   563  002133  00                 	db	0
   564  002134  10                 	db	16
   565  002135  00                 	db	0
   566  002136  1F                 	db	31
   567  002137  00                 	db	0
   568                           
   569                           ;initializer for petFun@F2436
   570  002138  00                 	db	0
   571  002139  00                 	db	0
   572  00213A  00                 	db	0
   573  00213B  01                 	db	1
   574  00213C  03                 	db	3
   575  00213D  06                 	db	6
   576  00213E  0C                 	db	12
   577  00213F  0C                 	db	12
   578  002140  00                 	db	0
   579  002141  00                 	db	0
   580  002142  1F                 	db	31
   581  002143  1F                 	db	31
   582  002144  00                 	db	0
   583  002145  00                 	db	0
   584  002146  00                 	db	0
   585  002147  00                 	db	0
   586  002148  00                 	db	0
   587  002149  00                 	db	0
   588  00214A  00                 	db	0
   589  00214B  17                 	db	23
   590  00214C  08                 	db	8
   591  00214D  07                 	db	7
   592  00214E  08                 	db	8
   593  00214F  07                 	db	7
   594  002150  00                 	db	0
   595  002151  00                 	db	0
   596  002152  06                 	db	6
   597  002153  19                 	db	25
   598  002154  00                 	db	0
   599  002155  10                 	db	16
   600  002156  00                 	db	0
   601  002157  10                 	db	16
   602  002158  0C                 	db	12
   603  002159  0C                 	db	12
   604  00215A  0C                 	db	12
   605  00215B  0C                 	db	12
   606  00215C  0C                 	db	12
   607  00215D  06                 	db	6
   608  00215E  03                 	db	3
   609  00215F  01                 	db	1
   610  002160  1B                 	db	27
   611  002161  1B                 	db	27
   612  002162  00                 	db	0
   613  002163  00                 	db	0
   614  002164  0E                 	db	14
   615  002165  00                 	db	0
   616  002166  1F                 	db	31
   617  002167  1F                 	db	31
   618  002168  08                 	db	8
   619  002169  07                 	db	7
   620  00216A  08                 	db	8
   621  00216B  07                 	db	7
   622  00216C  04                 	db	4
   623  00216D  08                 	db	8
   624  00216E  18                 	db	24
   625  00216F  10                 	db	16
   626  002170  00                 	db	0
   627  002171  08                 	db	8
   628  002172  00                 	db	0
   629  002173  1F                 	db	31
   630  002174  00                 	db	0
   631  002175  00                 	db	0
   632  002176  00                 	db	0
   633  002177  00                 	db	0
   634                           
   635                           	psect	smallconst
   636  000600                     __psmallconst:
   637                           	callstack 0
   638  000600  00                 	db	0
   639  000601                     _valor@ssd$F207:
   640                           	callstack 0
   641  000601  3F                 	db	63
   642  000602  06                 	db	6
   643  000603  5B                 	db	91
   644  000604  4F                 	db	79
   645  000605  66                 	db	102
   646  000606  6D                 	db	109
   647  000607  7D                 	db	125
   648  000608  07                 	db	7
   649  000609  7F                 	db	127
   650  00060A  6F                 	db	111
   651  00060B  77                 	db	119
   652  00060C  7C                 	db	124
   653  00060D  39                 	db	57
   654  00060E  5E                 	db	94
   655  00060F  79                 	db	121
   656  000610  71                 	db	113
   657  000611                     __end_of_valor@ssd$F207:
   658                           	callstack 0
   659  0000                     _T2CON	set	4042
   660  0000                     _CCP1CON	set	4029
   661  0000                     _CCPR1L	set	4030
   662  0000                     _PR2	set	4043
   663  0000                     _TRISE	set	3990
   664  0000                     _TRISD	set	3989
   665  0000                     _TRISC	set	3988
   666  0000                     _TRISB	set	3987
   667  0000                     _TRISA	set	3986
   668  0000                     _PORTE	set	3972
   669  0000                     _PORTD	set	3971
   670  0000                     _PORTC	set	3970
   671  0000                     _PORTB	set	3969
   672  0000                     _PORTA	set	3968
   673  000611                     STR_3:
   674  000611  53                 	db	83	;'S'
   675  000612  69                 	db	105	;'i'
   676  000613  6D                 	db	109	;'m'
   677  000614  75                 	db	117	;'u'
   678  000615  6C                 	db	108	;'l'
   679  000616  61                 	db	97	;'a'
   680  000617  64                 	db	100	;'d'
   681  000618  6F                 	db	111	;'o'
   682  000619  72                 	db	114	;'r'
   683  00061A  20                 	db	32
   684  00061B  64                 	db	100	;'d'
   685  00061C  65                 	db	101	;'e'
   686  00061D  20                 	db	32
   687  00061E  50                 	db	80	;'P'
   688  00061F  65                 	db	101	;'e'
   689  000620  74                 	db	116	;'t'
   690  000621  00                 	db	0
   691  000622                     STR_1:
   692  000622  47                 	db	71	;'G'
   693  000623  61                 	db	97	;'a'
   694  000624  6D                 	db	109	;'m'
   695  000625  65                 	db	101	;'e'
   696  000626  20                 	db	32
   697  000627  2D                 	db	45
   698  000628  20                 	db	32
   699  000629  4F                 	db	79	;'O'
   700  00062A  76                 	db	118	;'v'
   701  00062B  65                 	db	101	;'e'
   702  00062C  72                 	db	114	;'r'
   703  00062D  21                 	db	33
   704  00062E  00                 	db	0
   705  00062F  00                 	db	0	; dummy byte at the end
   706  0000                     
   707                           ; #config settings
   708                           
   709                           	psect	cinit
   710  002062                     __pcinit:
   711                           	callstack 0
   712  002062                     start_initialization:
   713                           	callstack 0
   714  002062                     __initialization:
   715                           	callstack 0
   716                           
   717                           ; Initialize objects allocated to BANK3 (128 bytes)
   718                           ; load TBLPTR registers with __pidataBANK3
   719  002062  0EF8               	movlw	low __pidataBANK3
   720  002064  6EF6               	movwf	tblptrl,c
   721  002066  0E20               	movlw	high __pidataBANK3
   722  002068  6EF7               	movwf	tblptrh,c
   723  00206A  0E00               	movlw	low (__pidataBANK3 shr (0+16))
   724  00206C  6EF8               	movwf	tblptru,c
   725  00206E  EE03  F000         	lfsr	0,__pdataBANK3
   726  002072  EE10 F080          	lfsr	1,128
   727  002076                     copy_data0:
   728  002076  0009               	tblrd		*+
   729  002078  CFF5 FFEE          	movff	tablat,postinc0
   730  00207C  50E5               	movf	postdec1,w,c
   731  00207E  50E1               	movf	fsr1l,w,c
   732  002080  E1FA               	bnz	copy_data0
   733                           
   734                           ; Initialize objects allocated to BANK2 (240 bytes)
   735                           ; load TBLPTR registers with __pidataBANK2
   736  002082  0E72               	movlw	low __pidataBANK2
   737  002084  6EF6               	movwf	tblptrl,c
   738  002086  0E1F               	movlw	high __pidataBANK2
   739  002088  6EF7               	movwf	tblptrh,c
   740  00208A  0E00               	movlw	low (__pidataBANK2 shr (0+16))
   741  00208C  6EF8               	movwf	tblptru,c
   742  00208E  EE02  F000         	lfsr	0,__pdataBANK2
   743  002092  EE10 F0F0          	lfsr	1,240
   744  002096                     copy_data1:
   745  002096  0009               	tblrd		*+
   746  002098  CFF5 FFEE          	movff	tablat,postinc0
   747  00209C  50E5               	movf	postdec1,w,c
   748  00209E  50E1               	movf	fsr1l,w,c
   749  0020A0  E1FA               	bnz	copy_data1
   750                           
   751                           ; Initialize objects allocated to BANK1 (96 bytes)
   752                           ; load TBLPTR registers with __pidataBANK1
   753  0020A2  0EB2               	movlw	low __pidataBANK1
   754  0020A4  6EF6               	movwf	tblptrl,c
   755  0020A6  0E23               	movlw	high __pidataBANK1
   756  0020A8  6EF7               	movwf	tblptrh,c
   757  0020AA  0E00               	movlw	low (__pidataBANK1 shr (0+16))
   758  0020AC  6EF8               	movwf	tblptru,c
   759  0020AE  EE01  F081         	lfsr	0,__pdataBANK1
   760  0020B2  EE10 F060          	lfsr	1,96
   761  0020B6                     copy_data2:
   762  0020B6  0009               	tblrd		*+
   763  0020B8  CFF5 FFEE          	movff	tablat,postinc0
   764  0020BC  50E5               	movf	postdec1,w,c
   765  0020BE  50E1               	movf	fsr1l,w,c
   766  0020C0  E1FA               	bnz	copy_data2
   767                           
   768                           ; Initialize objects allocated to BANK0 (48 bytes)
   769                           ; load TBLPTR registers with __pidataBANK0
   770  0020C2  0EB2               	movlw	low __pidataBANK0
   771  0020C4  6EF6               	movwf	tblptrl,c
   772  0020C6  0E24               	movlw	high __pidataBANK0
   773  0020C8  6EF7               	movwf	tblptrh,c
   774  0020CA  0E00               	movlw	low (__pidataBANK0 shr (0+16))
   775  0020CC  6EF8               	movwf	tblptru,c
   776  0020CE  EE00  F0BD         	lfsr	0,__pdataBANK0
   777  0020D2  EE10 F030          	lfsr	1,48
   778  0020D6                     copy_data3:
   779  0020D6  0009               	tblrd		*+
   780  0020D8  CFF5 FFEE          	movff	tablat,postinc0
   781  0020DC  50E5               	movf	postdec1,w,c
   782  0020DE  50E1               	movf	fsr1l,w,c
   783  0020E0  E1FA               	bnz	copy_data3
   784                           
   785                           ; Clear objects allocated to COMRAM (12 bytes)
   786  0020E2  EE00  F070         	lfsr	0,__pbssCOMRAM
   787  0020E6  0E0C               	movlw	12
   788  0020E8                     clear_0:
   789  0020E8  6AEE               	clrf	postinc0,c
   790  0020EA  06E8               	decf	wreg,f,c
   791  0020EC  E1FD               	bnz	clear_0
   792  0020EE                     end_of_initialization:
   793                           	callstack 0
   794  0020EE                     __end_of__initialization:
   795                           	callstack 0
   796  0020EE  0E00               	movlw	low (__Lmediumconst shr (0+16))
   797  0020F0  6EF8               	movwf	tblptru,c
   798  0020F2  0100               	movlb	0
   799  0020F4  EF78  F005         	goto	_main	;jump to C main() function
   800                           
   801                           	psect	bssCOMRAM
   802  000070                     __pbssCOMRAM:
   803                           	callstack 0
   804  000070                     kpDebounce@valorAntigo:
   805                           	callstack 0
   806  000070                     	ds	2
   807  000072                     kpDebounce@valorNovo:
   808                           	callstack 0
   809  000072                     	ds	2
   810  000074                     _valor:
   811                           	callstack 0
   812  000074                     	ds	2
   813  000076                     _v3:
   814                           	callstack 0
   815  000076                     	ds	1
   816  000077                     _v2:
   817                           	callstack 0
   818  000077                     	ds	1
   819  000078                     _v1:
   820                           	callstack 0
   821  000078                     	ds	1
   822  000079                     _v0:
   823                           	callstack 0
   824  000079                     	ds	1
   825  00007A                     _display:
   826                           	callstack 0
   827  00007A                     	ds	1
   828  00007B                     kpDebounce@tempo:
   829                           	callstack 0
   830  00007B                     	ds	1
   831                           
   832                           	psect	dataBANK0
   833  0000BD                     __pdataBANK0:
   834                           	callstack 0
   835  0000BD                     petInicio@F2420:
   836                           	callstack 0
   837  0000BD                     	ds	48
   838                           
   839                           	psect	dataBANK1
   840  000181                     __pdataBANK1:
   841                           	callstack 0
   842  000181                     petNao@F2430:
   843                           	callstack 0
   844  000181                     	ds	48
   845  0001B1                     petInicio@F2422:
   846                           	callstack 0
   847  0001B1                     	ds	48
   848                           
   849                           	psect	dataBANK2
   850  000200                     __pdataBANK2:
   851                           	callstack 0
   852  000200                     main@F2464:
   853                           	callstack 0
   854  000200                     	ds	48
   855  000230                     petX@F2453:
   856                           	callstack 0
   857  000230                     	ds	48
   858  000260                     petFome@F2444:
   859                           	callstack 0
   860  000260                     	ds	48
   861  000290                     petFome@F2442:
   862                           	callstack 0
   863  000290                     	ds	48
   864  0002C0                     petNao@F2432:
   865                           	callstack 0
   866  0002C0                     	ds	48
   867                           
   868                           	psect	dataBANK3
   869  000300                     __pdataBANK3:
   870                           	callstack 0
   871  000300                     petFun@F2438:
   872                           	callstack 0
   873  000300                     	ds	64
   874  000340                     petFun@F2436:
   875                           	callstack 0
   876  000340                     	ds	64
   877                           
   878                           	psect	cstackBANK1
   879  000100                     __pcstackBANK1:
   880                           	callstack 0
   881  000100                     petFun@pet_fun1:
   882                           	callstack 0
   883                           
   884                           ; 64 bytes @ 0x0
   885  000100                     	ds	64
   886  000140                     petFun@pet_fun2:
   887                           	callstack 0
   888                           
   889                           ; 64 bytes @ 0x40
   890  000140                     	ds	64
   891  000180                     petFun@i:
   892                           	callstack 0
   893                           
   894                           ; 1 bytes @ 0x80
   895  000180                     	ds	1
   896                           
   897                           	psect	cstackBANK0
   898  000080                     __pcstackBANK0:
   899                           	callstack 0
   900  000080                     main@pet:
   901                           	callstack 0
   902                           
   903                           ; 48 bytes @ 0x0
   904  000080                     	ds	48
   905  0000B0                     main@cont1:
   906                           	callstack 0
   907                           
   908                           ; 2 bytes @ 0x30
   909  0000B0                     	ds	2
   910  0000B2                     main@cont2:
   911                           	callstack 0
   912                           
   913                           ; 2 bytes @ 0x32
   914  0000B2                     	ds	2
   915  0000B4                     main@j:
   916                           	callstack 0
   917                           
   918                           ; 1 bytes @ 0x34
   919  0000B4                     	ds	1
   920  0000B5                     main@tempo:
   921                           	callstack 0
   922                           
   923                           ; 4 bytes @ 0x35
   924  0000B5                     	ds	4
   925  0000B9                     main@tecla:
   926                           	callstack 0
   927                           
   928                           ; 1 bytes @ 0x39
   929  0000B9                     	ds	1
   930  0000BA                     main@fome:
   931                           	callstack 0
   932                           
   933                           ; 1 bytes @ 0x3A
   934  0000BA                     	ds	1
   935  0000BB                     main@fun:
   936                           	callstack 0
   937                           
   938                           ; 1 bytes @ 0x3B
   939  0000BB                     	ds	1
   940  0000BC                     main@i:
   941                           	callstack 0
   942                           
   943                           ; 1 bytes @ 0x3C
   944  0000BC                     	ds	1
   945                           
   946                           	psect	cstackCOMRAM
   947  000001                     __pcstackCOMRAM:
   948                           	callstack 0
   949  000001                     ??_kpDebounce:
   950  000001                     ??_fomeLed:
   951  000001                     ??_funLed:
   952  000001                     ?_kpRead:
   953                           	callstack 0
   954  000001                     ?___wmul:
   955                           	callstack 0
   956  000001                     ?___lwdiv:
   957                           	callstack 0
   958  000001                     ?___fladd:
   959                           	callstack 0
   960  000001                     ?___aldiv:
   961                           	callstack 0
   962  000001                     Delay40us@i:
   963                           	callstack 0
   964  000001                     digitalWrite@pin:
   965                           	callstack 0
   966  000001                     pinMode@pin:
   967                           	callstack 0
   968  000001                     atraso_ms@valor:
   969                           	callstack 0
   970  000001                     ___wmul@multiplier:
   971                           	callstack 0
   972  000001                     ___lwdiv@dividend:
   973                           	callstack 0
   974  000001                     ___aldiv@dividend:
   975                           	callstack 0
   976  000001                     ___flge@ff1:
   977                           	callstack 0
   978  000001                     ___fladd@b:
   979                           	callstack 0
   980                           
   981                           ; 4 bytes @ 0x0
   982  000001                     	ds	1
   983  000002                     Delay2ms@i:
   984                           	callstack 0
   985                           
   986                           ; 1 bytes @ 0x1
   987  000002                     	ds	1
   988  000003                     fomeLed@fome:
   989                           	callstack 0
   990  000003                     funLed@fun:
   991                           	callstack 0
   992  000003                     digitalWrite@value:
   993                           	callstack 0
   994  000003                     pinMode@type:
   995                           	callstack 0
   996  000003                     atraso_ms@i:
   997                           	callstack 0
   998  000003                     ___wmul@multiplicand:
   999                           	callstack 0
  1000  000003                     ___lwdiv@divisor:
  1001                           	callstack 0
  1002                           
  1003                           ; 2 bytes @ 0x2
  1004  000003                     	ds	2
  1005  000005                     ??_digitalWrite:
  1006  000005                     ??_pinMode:
  1007  000005                     atraso_ms@j:
  1008                           	callstack 0
  1009  000005                     ___wmul@product:
  1010                           	callstack 0
  1011  000005                     ___lwdiv@quotient:
  1012                           	callstack 0
  1013  000005                     ___aldiv@divisor:
  1014                           	callstack 0
  1015  000005                     ___flge@ff2:
  1016                           	callstack 0
  1017  000005                     ___fladd@a:
  1018                           	callstack 0
  1019                           
  1020                           ; 4 bytes @ 0x4
  1021  000005                     	ds	1
  1022  000006                     kpDebounce@old_D:
  1023                           	callstack 0
  1024  000006                     atraso_ms@k:
  1025                           	callstack 0
  1026                           
  1027                           ; 1 bytes @ 0x5
  1028  000006                     	ds	1
  1029  000007                     lcdCommand@old_D:
  1030                           	callstack 0
  1031  000007                     lcdData@valor:
  1032                           	callstack 0
  1033  000007                     ___lwdiv@counter:
  1034                           	callstack 0
  1035  000007                     kpDebounce@k:
  1036                           	callstack 0
  1037                           
  1038                           ; 2 bytes @ 0x6
  1039  000007                     	ds	1
  1040  000008                     ??_pwmSet:
  1041  000008                     lcdCommand@cmd:
  1042                           	callstack 0
  1043  000008                     lcdData@old_D:
  1044                           	callstack 0
  1045                           
  1046                           ; 1 bytes @ 0x7
  1047  000008                     	ds	1
  1048  000009                     ??___fladd:
  1049  000009                     ??___flge:
  1050  000009                     kpDebounce@j:
  1051                           	callstack 0
  1052  000009                     ___aldiv@counter:
  1053                           	callstack 0
  1054  000009                     imprime@msg:
  1055                           	callstack 0
  1056  000009                     petInicio@pet:
  1057                           	callstack 0
  1058  000009                     petNao@pet_nao1:
  1059                           	callstack 0
  1060                           
  1061                           ; 48 bytes @ 0x8
  1062  000009                     	ds	1
  1063  00000A                     kpDebounce@i:
  1064                           	callstack 0
  1065  00000A                     pwmSet@porcento:
  1066                           	callstack 0
  1067  00000A                     ___aldiv@sign:
  1068                           	callstack 0
  1069                           
  1070                           ; 1 bytes @ 0x9
  1071  00000A                     	ds	1
  1072  00000B                     ??_imprime:
  1073  00000B                     pwmSet@val:
  1074                           	callstack 0
  1075  00000B                     ___aldiv@quotient:
  1076                           	callstack 0
  1077                           
  1078                           ; 4 bytes @ 0xA
  1079  00000B                     	ds	2
  1080  00000D                     imprime@i:
  1081                           	callstack 0
  1082  00000D                     ___fladd@signs:
  1083                           	callstack 0
  1084  00000D                     petFome@pet_fome1:
  1085                           	callstack 0
  1086                           
  1087                           ; 48 bytes @ 0xC
  1088  00000D                     	ds	1
  1089  00000E                     petX@fun:
  1090                           	callstack 0
  1091  00000E                     ___fladd@aexp:
  1092                           	callstack 0
  1093                           
  1094                           ; 1 bytes @ 0xD
  1095  00000E                     	ds	1
  1096  00000F                     ___fladd@bexp:
  1097                           	callstack 0
  1098  00000F                     pwmFrequency@freq:
  1099                           	callstack 0
  1100  00000F                     petX@pet_X:
  1101                           	callstack 0
  1102                           
  1103                           ; 48 bytes @ 0xE
  1104  00000F                     	ds	1
  1105  000010                     ___fladd@grs:
  1106                           	callstack 0
  1107                           
  1108                           ; 1 bytes @ 0xF
  1109  000010                     	ds	1
  1110  000011                     
  1111                           ; 1 bytes @ 0x10
  1112  000011                     	ds	40
  1113  000039                     petInicio@pet_deitado:
  1114                           	callstack 0
  1115  000039                     petNao@pet_nao2:
  1116                           	callstack 0
  1117                           
  1118                           ; 48 bytes @ 0x38
  1119  000039                     	ds	4
  1120  00003D                     petFome@pet_fome2:
  1121                           	callstack 0
  1122                           
  1123                           ; 48 bytes @ 0x3C
  1124  00003D                     	ds	2
  1125  00003F                     petX@fome:
  1126                           	callstack 0
  1127                           
  1128                           ; 1 bytes @ 0x3E
  1129  00003F                     	ds	1
  1130  000040                     petX@i:
  1131                           	callstack 0
  1132                           
  1133                           ; 1 bytes @ 0x3F
  1134  000040                     	ds	41
  1135  000069                     petInicio@i:
  1136                           	callstack 0
  1137  000069                     petNao@i:
  1138                           	callstack 0
  1139                           
  1140                           ; 1 bytes @ 0x68
  1141  000069                     	ds	4
  1142  00006D                     petFome@i:
  1143                           	callstack 0
  1144                           
  1145                           ; 1 bytes @ 0x6C
  1146  00006D                     	ds	1
  1147  00006E                     ??_main:
  1148                           
  1149                           ; 1 bytes @ 0x6D
  1150  00006E                     	ds	2
  1151                           
  1152 ;;
  1153 ;;Main: autosize = 0, tempsize = 2, incstack = 0, save=0
  1154 ;;
  1155 ;; *************** function _main *****************
  1156 ;; Defined at:
  1157 ;;		line 572 in file "main.c"
  1158 ;; Parameters:    Size  Location     Type
  1159 ;;		None
  1160 ;; Auto vars:     Size  Location     Type
  1161 ;;  pet            48    0[BANK0 ] unsigned char [48]
  1162 ;;  tempo           4   53[BANK0 ] float 
  1163 ;;  cont2           2   50[BANK0 ] int 
  1164 ;;  cont1           2   48[BANK0 ] int 
  1165 ;;  i               1   60[BANK0 ] unsigned char 
  1166 ;;  fun             1   59[BANK0 ] unsigned char 
  1167 ;;  fome            1   58[BANK0 ] unsigned char 
  1168 ;;  tecla           1   57[BANK0 ] unsigned char 
  1169 ;;  j               1   52[BANK0 ] unsigned char 
  1170 ;; Return value:  Size  Location     Type
  1171 ;;                  1    wreg      void 
  1172 ;; Registers used:
  1173 ;;		wreg, fsr1l, fsr1h, fsr2l, fsr2h, status,2, status,0, tblptrl, tblptrh, tblptru, prodl, prodh, cstack
  1174 ;; Tracked objects:
  1175 ;;		On entry : 0/0
  1176 ;;		On exit  : 0/0
  1177 ;;		Unchanged: 0/0
  1178 ;; Data sizes:     COMRAM   BANK0   BANK1   BANK2   BANK3   BANK4   BANK5
  1179 ;;      Params:         0       0       0       0       0       0       0
  1180 ;;      Locals:         0      61       0       0       0       0       0
  1181 ;;      Temps:          2       0       0       0       0       0       0
  1182 ;;      Totals:         2      61       0       0       0       0       0
  1183 ;;Total ram usage:       63 bytes
  1184 ;; Hardware stack levels required when called: 4
  1185 ;; This function calls:
  1186 ;;		___fladd
  1187 ;;		___flge
  1188 ;;		_atraso_ms
  1189 ;;		_fomeLed
  1190 ;;		_funLed
  1191 ;;		_imprime
  1192 ;;		_kpDebounce
  1193 ;;		_kpInit
  1194 ;;		_kpRead
  1195 ;;		_lcdCommand
  1196 ;;		_lcdData
  1197 ;;		_lcdInit
  1198 ;;		_petFome
  1199 ;;		_petFun
  1200 ;;		_petInicio
  1201 ;;		_petNao
  1202 ;;		_petX
  1203 ;;		_pwmInit
  1204 ;; This function is called by:
  1205 ;;		Startup code after reset
  1206 ;; This function uses a non-reentrant model
  1207 ;;
  1208                           
  1209                           	psect	text0
  1210  000AF0                     __ptext0:
  1211                           	callstack 0
  1212  000AF0                     _main:
  1213                           	callstack 27
  1214  000AF0                     
  1215                           ;main.c: 573:     unsigned char i, j, tecla;;main.c: 574:     unsigned char fome = '8', 
      +                          fun = '7';
  1216  000AF0  0E38               	movlw	56
  1217  000AF2  0100               	movlb	0	; () banked
  1218  000AF4  6FBA               	movwf	main@fome& (0+255),b
  1219  000AF6  0E37               	movlw	55
  1220  000AF8  6FBB               	movwf	main@fun& (0+255),b
  1221  000AFA                     
  1222                           ; BSR set to: 0
  1223                           ;main.c: 575:     float tempo;;main.c: 576:     int cont1, cont2;;main.c: 578:     unsig
      +                          ned char pet[48] = {0b00000, 0b00000, 0b00000, 0b00001, 0b00011, 0b00110, 0b01100, 0b011
      +                          00,
  1224  000AFA  EE22  F000         	lfsr	2,main@F2464
  1225  000AFE  EE10  F080         	lfsr	1,main@pet
  1226  000B02  0E2F               	movlw	47
  1227  000B04                     u3031:
  1228  000B04  CFDB FFE3          	movff	plusw2,plusw1
  1229  000B08  06E8               	decf	wreg,f,c
  1230  000B0A  E2FC               	bc	u3031
  1231  000B0C                     
  1232                           ; BSR set to: 0
  1233                           ;main.c: 585:     lcdInit();
  1234  000B0C  ECFB  F010         	call	_lcdInit	;wreg free
  1235  000B10                     
  1236                           ;main.c: 587:     lcdCommand(0x0C);
  1237  000B10  0E0C               	movlw	12
  1238  000B12  ECBC  F010         	call	_lcdCommand
  1239  000B16                     
  1240                           ;main.c: 588:     lcdCommand(0x80);
  1241  000B16  0E80               	movlw	128
  1242  000B18  ECBC  F010         	call	_lcdCommand
  1243  000B1C                     
  1244                           ;main.c: 589:     imprime("Simulador de Pet");
  1245  000B1C  0E11               	movlw	low STR_3
  1246  000B1E  6E09               	movwf	imprime@msg^0,c
  1247  000B20  0E06               	movlw	high STR_3
  1248  000B22  6E0A               	movwf	(imprime@msg+1)^0,c
  1249  000B24  EC33  F012         	call	_imprime	;wreg free
  1250  000B28                     
  1251                           ;main.c: 590:     for (j = 0; j < 1; j++) {
  1252  000B28  0E00               	movlw	0
  1253  000B2A  0100               	movlb	0	; () banked
  1254  000B2C  6FB4               	movwf	main@j& (0+255),b
  1255  000B2E                     l3122:
  1256                           
  1257                           ; BSR set to: 0
  1258                           ;main.c: 591:         for (i = 0; i < 29; i++) {
  1259  000B2E  0E00               	movlw	0
  1260  000B30  6FBC               	movwf	main@i& (0+255),b
  1261  000B32                     l3128:
  1262                           
  1263                           ; BSR set to: 0
  1264                           ;main.c: 592:             atraso_ms(100);
  1265  000B32  0E00               	movlw	0
  1266  000B34  6E02               	movwf	(atraso_ms@valor+1)^0,c
  1267  000B36  0E64               	movlw	100
  1268  000B38  6E01               	movwf	atraso_ms@valor^0,c
  1269  000B3A  ECA7  F011         	call	_atraso_ms	;wreg free
  1270                           
  1271                           ;main.c: 593:             lcdCommand(0x18);
  1272  000B3E  0E18               	movlw	24
  1273  000B40  ECBC  F010         	call	_lcdCommand
  1274  000B44                     
  1275                           ;main.c: 594:         }
  1276  000B44  0100               	movlb	0	; () banked
  1277  000B46  2BBC               	incf	main@i& (0+255),f,b
  1278  000B48                     
  1279                           ; BSR set to: 0
  1280  000B48  0E1C               	movlw	28
  1281  000B4A  65BC               	cpfsgt	main@i& (0+255),b
  1282  000B4C  EFAA  F005         	goto	u3041
  1283  000B50  EFAC  F005         	goto	u3040
  1284  000B54                     u3041:
  1285  000B54  EF99  F005         	goto	l3128
  1286  000B58                     u3040:
  1287  000B58                     
  1288                           ; BSR set to: 0
  1289                           ;main.c: 595:         for (i = 0; i < 29; i++) {
  1290  000B58  0E00               	movlw	0
  1291  000B5A  6FBC               	movwf	main@i& (0+255),b
  1292  000B5C                     l3140:
  1293                           
  1294                           ; BSR set to: 0
  1295                           ;main.c: 596:             atraso_ms(100);
  1296  000B5C  0E00               	movlw	0
  1297  000B5E  6E02               	movwf	(atraso_ms@valor+1)^0,c
  1298  000B60  0E64               	movlw	100
  1299  000B62  6E01               	movwf	atraso_ms@valor^0,c
  1300  000B64  ECA7  F011         	call	_atraso_ms	;wreg free
  1301                           
  1302                           ;main.c: 597:             lcdCommand(0x1C);
  1303  000B68  0E1C               	movlw	28
  1304  000B6A  ECBC  F010         	call	_lcdCommand
  1305  000B6E                     
  1306                           ;main.c: 598:         }
  1307  000B6E  0100               	movlb	0	; () banked
  1308  000B70  2BBC               	incf	main@i& (0+255),f,b
  1309  000B72                     
  1310                           ; BSR set to: 0
  1311  000B72  0E1C               	movlw	28
  1312  000B74  65BC               	cpfsgt	main@i& (0+255),b
  1313  000B76  EFBF  F005         	goto	u3051
  1314  000B7A  EFC1  F005         	goto	u3050
  1315  000B7E                     u3051:
  1316  000B7E  EFAE  F005         	goto	l3140
  1317  000B82                     u3050:
  1318  000B82                     
  1319                           ; BSR set to: 0
  1320                           ;main.c: 599:     }
  1321  000B82  2BB4               	incf	main@j& (0+255),f,b
  1322  000B84                     
  1323                           ; BSR set to: 0
  1324  000B84  51B4               	movf	main@j& (0+255),w,b
  1325  000B86  B4D8               	btfsc	status,2,c
  1326  000B88  EFC8  F005         	goto	u3061
  1327  000B8C  EFCA  F005         	goto	u3060
  1328  000B90                     u3061:
  1329  000B90  EF97  F005         	goto	l3122
  1330  000B94                     u3060:
  1331  000B94                     
  1332                           ; BSR set to: 0
  1333                           ;main.c: 601:     lcdCommand(0x01);
  1334  000B94  0E01               	movlw	1
  1335  000B96  ECBC  F010         	call	_lcdCommand
  1336  000B9A                     
  1337                           ;main.c: 602:     for (i = 0; i < 3; i++) {
  1338  000B9A  0E00               	movlw	0
  1339  000B9C  0100               	movlb	0	; () banked
  1340  000B9E  6FBC               	movwf	main@i& (0+255),b
  1341  000BA0                     l3158:
  1342                           
  1343                           ; BSR set to: 0
  1344                           ;main.c: 603:         petInicio();
  1345  000BA0  EC3C  F00F         	call	_petInicio	;wreg free
  1346  000BA4                     
  1347                           ;main.c: 604:     }
  1348  000BA4  0100               	movlb	0	; () banked
  1349  000BA6  2BBC               	incf	main@i& (0+255),f,b
  1350  000BA8                     
  1351                           ; BSR set to: 0
  1352  000BA8  0E02               	movlw	2
  1353  000BAA  65BC               	cpfsgt	main@i& (0+255),b
  1354  000BAC  EFDA  F005         	goto	u3071
  1355  000BB0  EFDC  F005         	goto	u3070
  1356  000BB4                     u3071:
  1357  000BB4  EFD0  F005         	goto	l3158
  1358  000BB8                     u3070:
  1359  000BB8                     
  1360                           ; BSR set to: 0
  1361                           ;main.c: 605:     lcdCommand(0x01);
  1362  000BB8  0E01               	movlw	1
  1363  000BBA  ECBC  F010         	call	_lcdCommand
  1364                           
  1365                           ;main.c: 607:     kpInit();
  1366  000BBE  ECC3  F012         	call	_kpInit	;wreg free
  1367                           
  1368                           ;main.c: 608:     pwmInit();
  1369  000BC2  ECA5  F012         	call	_pwmInit	;wreg free
  1370  000BC6                     
  1371                           ;main.c: 609:     TRISC = 0x00;
  1372  000BC6  0E00               	movlw	0
  1373  000BC8  6E94               	movwf	148,c	;volatile
  1374  000BCA                     l3168:
  1375                           
  1376                           ;main.c: 612:         TRISB = 0x07;
  1377  000BCA  0E07               	movlw	7
  1378  000BCC  6E93               	movwf	147,c	;volatile
  1379  000BCE                     
  1380                           ;main.c: 613:         TRISD = 0x0f;
  1381  000BCE  0E0F               	movlw	15
  1382  000BD0  6E95               	movwf	149,c	;volatile
  1383  000BD2                     
  1384                           ;main.c: 614:         cont1++;
  1385  000BD2  0100               	movlb	0	; () banked
  1386  000BD4  4BB0               	infsnz	main@cont1& (0+255),f,b
  1387  000BD6  2BB1               	incf	(main@cont1+1)& (0+255),f,b
  1388  000BD8                     
  1389                           ; BSR set to: 0
  1390                           ;main.c: 615:         cont2++;
  1391  000BD8  4BB2               	infsnz	main@cont2& (0+255),f,b
  1392  000BDA  2BB3               	incf	(main@cont2+1)& (0+255),f,b
  1393  000BDC                     
  1394                           ; BSR set to: 0
  1395                           ;main.c: 616:         fomeLed(fome);
  1396  000BDC  51BA               	movf	main@fome& (0+255),w,b
  1397  000BDE  EC20  F00D         	call	_fomeLed
  1398  000BE2                     
  1399                           ;main.c: 617:         funLed(fun);
  1400  000BE2  0100               	movlb	0	; () banked
  1401  000BE4  51BB               	movf	main@fun& (0+255),w,b
  1402  000BE6  EC37  F00E         	call	_funLed
  1403  000BEA                     
  1404                           ;main.c: 619:         lcdCommand(0x40);
  1405  000BEA  0E40               	movlw	64
  1406  000BEC  ECBC  F010         	call	_lcdCommand
  1407                           
  1408                           ;main.c: 620:         for (i = 0; i < 48; i++) {
  1409  000BF0  0E00               	movlw	0
  1410  000BF2  0100               	movlb	0	; () banked
  1411  000BF4  6FBC               	movwf	main@i& (0+255),b
  1412  000BF6                     l3186:
  1413                           
  1414                           ; BSR set to: 0
  1415                           ;main.c: 621:             lcdData(pet[i]);
  1416  000BF6  0E80               	movlw	low main@pet
  1417  000BF8  25BC               	addwf	main@i& (0+255),w,b
  1418  000BFA  6ED9               	movwf	fsr2l,c
  1419  000BFC  6ADA               	clrf	fsr2h,c
  1420  000BFE  0E00               	movlw	high main@pet
  1421  000C00  22DA               	addwfc	fsr2h,f,c
  1422  000C02  50DF               	movf	indf2,w,c
  1423  000C04  EC09  F012         	call	_lcdData
  1424  000C08                     
  1425                           ;main.c: 622:         }
  1426  000C08  0100               	movlb	0	; () banked
  1427  000C0A  2BBC               	incf	main@i& (0+255),f,b
  1428  000C0C                     
  1429                           ; BSR set to: 0
  1430  000C0C  0E2F               	movlw	47
  1431  000C0E  65BC               	cpfsgt	main@i& (0+255),b
  1432  000C10  EF0C  F006         	goto	u3081
  1433  000C14  EF0E  F006         	goto	u3080
  1434  000C18                     u3081:
  1435  000C18  EFFB  F005         	goto	l3186
  1436  000C1C                     u3080:
  1437  000C1C                     
  1438                           ; BSR set to: 0
  1439                           ;main.c: 623:         lcdCommand(0xC0 + 6);
  1440  000C1C  0EC6               	movlw	198
  1441  000C1E  ECBC  F010         	call	_lcdCommand
  1442                           
  1443                           ;main.c: 624:         lcdData(0);
  1444  000C22  0E00               	movlw	0
  1445  000C24  EC09  F012         	call	_lcdData
  1446                           
  1447                           ;main.c: 625:         lcdData(1);
  1448  000C28  0E01               	movlw	1
  1449  000C2A  EC09  F012         	call	_lcdData
  1450                           
  1451                           ;main.c: 626:         lcdData(2);
  1452  000C2E  0E02               	movlw	2
  1453  000C30  EC09  F012         	call	_lcdData
  1454                           
  1455                           ;main.c: 627:         lcdCommand(0x90 + 6);
  1456  000C34  0E96               	movlw	150
  1457  000C36  ECBC  F010         	call	_lcdCommand
  1458                           
  1459                           ;main.c: 628:         lcdData(3);
  1460  000C3A  0E03               	movlw	3
  1461  000C3C  EC09  F012         	call	_lcdData
  1462                           
  1463                           ;main.c: 629:         lcdData(4);
  1464  000C40  0E04               	movlw	4
  1465  000C42  EC09  F012         	call	_lcdData
  1466                           
  1467                           ;main.c: 630:         lcdData(5);
  1468  000C46  0E05               	movlw	5
  1469  000C48  EC09  F012         	call	_lcdData
  1470  000C4C                     
  1471                           ;main.c: 632:         if (cont1 == 250) {
  1472  000C4C  0EFA               	movlw	250
  1473  000C4E  0100               	movlb	0	; () banked
  1474  000C50  19B0               	xorwf	main@cont1& (0+255),w,b
  1475  000C52  11B1               	iorwf	(main@cont1+1)& (0+255),w,b
  1476  000C54  A4D8               	btfss	status,2,c
  1477  000C56  EF2F  F006         	goto	u3091
  1478  000C5A  EF31  F006         	goto	u3090
  1479  000C5E                     u3091:
  1480  000C5E  EF36  F006         	goto	l3200
  1481  000C62                     u3090:
  1482  000C62                     
  1483                           ; BSR set to: 0
  1484                           ;main.c: 633:             fome--;
  1485  000C62  07BA               	decf	main@fome& (0+255),f,b
  1486  000C64                     
  1487                           ; BSR set to: 0
  1488                           ;main.c: 634:             cont1 = 0;
  1489  000C64  0E00               	movlw	0
  1490  000C66  6FB1               	movwf	(main@cont1+1)& (0+255),b
  1491  000C68  0E00               	movlw	0
  1492  000C6A  6FB0               	movwf	main@cont1& (0+255),b
  1493  000C6C                     l3200:
  1494                           
  1495                           ; BSR set to: 0
  1496                           ;main.c: 636:         if (cont2 == 350) {
  1497  000C6C  0E5E               	movlw	94
  1498  000C6E  19B2               	xorwf	main@cont2& (0+255),w,b
  1499  000C70  E106               	bnz	u3101
  1500  000C72  05B3               	decf	(main@cont2+1)& (0+255),w,b
  1501  000C74  A4D8               	btfss	status,2,c
  1502  000C76  EF3F  F006         	goto	u3101
  1503  000C7A  EF41  F006         	goto	u3100
  1504  000C7E                     u3101:
  1505  000C7E  EF46  F006         	goto	l3206
  1506  000C82                     u3100:
  1507  000C82                     
  1508                           ; BSR set to: 0
  1509                           ;main.c: 637:             fun--;
  1510  000C82  07BB               	decf	main@fun& (0+255),f,b
  1511  000C84                     
  1512                           ; BSR set to: 0
  1513                           ;main.c: 638:             cont2 = 0;
  1514  000C84  0E00               	movlw	0
  1515  000C86  6FB3               	movwf	(main@cont2+1)& (0+255),b
  1516  000C88  0E00               	movlw	0
  1517  000C8A  6FB2               	movwf	main@cont2& (0+255),b
  1518  000C8C                     l3206:
  1519                           
  1520                           ; BSR set to: 0
  1521                           ;main.c: 640:         for (tempo = 0; tempo < 40; tempo++);
  1522  000C8C  0E00               	movlw	0
  1523  000C8E  6FB5               	movwf	main@tempo& (0+255),b
  1524  000C90  0E00               	movlw	0
  1525  000C92  6FB6               	movwf	(main@tempo+1)& (0+255),b
  1526  000C94  0E00               	movlw	0
  1527  000C96  6FB7               	movwf	(main@tempo+2)& (0+255),b
  1528  000C98  0E00               	movlw	0
  1529  000C9A  6FB8               	movwf	(main@tempo+3)& (0+255),b
  1530  000C9C                     
  1531                           ; BSR set to: 0
  1532  000C9C  C0B5  F001         	movff	main@tempo,___flge@ff1
  1533  000CA0  C0B6  F002         	movff	main@tempo+1,___flge@ff1+1
  1534  000CA4  C0B7  F003         	movff	main@tempo+2,___flge@ff1+2
  1535  000CA8  C0B8  F004         	movff	main@tempo+3,___flge@ff1+3
  1536  000CAC  0E00               	movlw	0
  1537  000CAE  6E05               	movwf	___flge@ff2^0,c
  1538  000CB0  0E00               	movlw	0
  1539  000CB2  6E06               	movwf	(___flge@ff2+1)^0,c
  1540  000CB4  0E20               	movlw	32
  1541  000CB6  6E07               	movwf	(___flge@ff2+2)^0,c
  1542  000CB8  0E42               	movlw	66
  1543  000CBA  6E08               	movwf	(___flge@ff2+3)^0,c
  1544  000CBC  ECBA  F00E         	call	___flge	;wreg free
  1545  000CC0  A0D8               	btfss	status,0,c
  1546  000CC2  EF65  F006         	goto	u3111
  1547  000CC6  EF67  F006         	goto	u3110
  1548  000CCA                     u3111:
  1549  000CCA  EF69  F006         	goto	l3212
  1550  000CCE                     u3110:
  1551  000CCE  EF9C  F006         	goto	l3214
  1552  000CD2                     l3212:
  1553  000CD2  C0B5  F001         	movff	main@tempo,___fladd@b
  1554  000CD6  C0B6  F002         	movff	main@tempo+1,___fladd@b+1
  1555  000CDA  C0B7  F003         	movff	main@tempo+2,___fladd@b+2
  1556  000CDE  C0B8  F004         	movff	main@tempo+3,___fladd@b+3
  1557  000CE2  0E00               	movlw	0
  1558  000CE4  6E05               	movwf	___fladd@a^0,c
  1559  000CE6  0E00               	movlw	0
  1560  000CE8  6E06               	movwf	(___fladd@a+1)^0,c
  1561  000CEA  0E80               	movlw	128
  1562  000CEC  6E07               	movwf	(___fladd@a+2)^0,c
  1563  000CEE  0E3F               	movlw	63
  1564  000CF0  6E08               	movwf	(___fladd@a+3)^0,c
  1565  000CF2  EC18  F003         	call	___fladd	;wreg free
  1566  000CF6  C001  F0B5         	movff	?___fladd,main@tempo
  1567  000CFA  C002  F0B6         	movff	?___fladd+1,main@tempo+1
  1568  000CFE  C003  F0B7         	movff	?___fladd+2,main@tempo+2
  1569  000D02  C004  F0B8         	movff	?___fladd+3,main@tempo+3
  1570  000D06  C0B5  F001         	movff	main@tempo,___flge@ff1
  1571  000D0A  C0B6  F002         	movff	main@tempo+1,___flge@ff1+1
  1572  000D0E  C0B7  F003         	movff	main@tempo+2,___flge@ff1+2
  1573  000D12  C0B8  F004         	movff	main@tempo+3,___flge@ff1+3
  1574  000D16  0E00               	movlw	0
  1575  000D18  6E05               	movwf	___flge@ff2^0,c
  1576  000D1A  0E00               	movlw	0
  1577  000D1C  6E06               	movwf	(___flge@ff2+1)^0,c
  1578  000D1E  0E20               	movlw	32
  1579  000D20  6E07               	movwf	(___flge@ff2+2)^0,c
  1580  000D22  0E42               	movlw	66
  1581  000D24  6E08               	movwf	(___flge@ff2+3)^0,c
  1582  000D26  ECBA  F00E         	call	___flge	;wreg free
  1583  000D2A  A0D8               	btfss	status,0,c
  1584  000D2C  EF9A  F006         	goto	u3121
  1585  000D30  EF9C  F006         	goto	u3120
  1586  000D34                     u3121:
  1587  000D34  EF69  F006         	goto	l3212
  1588  000D38                     u3120:
  1589  000D38                     l3214:
  1590                           
  1591                           ;main.c: 642:         kpDebounce();
  1592  000D38  EC15  F00B         	call	_kpDebounce	;wreg free
  1593  000D3C                     
  1594                           ;main.c: 644:         if (kpRead() != tecla) {
  1595  000D3C  0100               	movlb	0	; () banked
  1596  000D3E  51B9               	movf	main@tecla& (0+255),w,b
  1597  000D40  6E6E               	movwf	??_main^0,c
  1598  000D42  6A6F               	clrf	(??_main+1)^0,c
  1599  000D44  ECBE  F012         	call	_kpRead	;wreg free
  1600  000D48  506E               	movf	??_main^0,w,c
  1601  000D4A  1801               	xorwf	?_kpRead^0,w,c
  1602  000D4C  E109               	bnz	u3130
  1603  000D4E  506F               	movf	(??_main+1)^0,w,c
  1604  000D50  1802               	xorwf	(?_kpRead+1)^0,w,c
  1605  000D52  B4D8               	btfsc	status,2,c
  1606  000D54  EFAE  F006         	goto	u3131
  1607  000D58  EFB0  F006         	goto	u3130
  1608  000D5C                     u3131:
  1609  000D5C  EFE4  F006         	goto	l3240
  1610  000D60                     u3130:
  1611  000D60                     
  1612                           ;main.c: 645:             tecla = kpRead();
  1613  000D60  ECBE  F012         	call	_kpRead	;wreg free
  1614  000D64  5001               	movf	?_kpRead^0,w,c
  1615  000D66  0100               	movlb	0	; () banked
  1616  000D68  6FB9               	movwf	main@tecla& (0+255),b
  1617  000D6A                     
  1618                           ; BSR set to: 0
  1619                           ;main.c: 647:             if (((tecla) & (1<<(3)))) {
  1620  000D6A  A7B9               	btfss	main@tecla& (0+255),3,b
  1621  000D6C  EFBA  F006         	goto	u3141
  1622  000D70  EFBC  F006         	goto	u3140
  1623  000D74                     u3141:
  1624  000D74  EFCC  F006         	goto	l3230
  1625  000D78                     u3140:
  1626  000D78                     
  1627                           ; BSR set to: 0
  1628                           ;main.c: 648:                 if (fome == '8') {
  1629  000D78  0E38               	movlw	56
  1630  000D7A  19BA               	xorwf	main@fome& (0+255),w,b
  1631  000D7C  A4D8               	btfss	status,2,c
  1632  000D7E  EFC3  F006         	goto	u3151
  1633  000D82  EFC5  F006         	goto	u3150
  1634  000D86                     u3151:
  1635  000D86  EFC9  F006         	goto	l3226
  1636  000D8A                     u3150:
  1637  000D8A                     
  1638                           ; BSR set to: 0
  1639                           ;main.c: 649:                     petNao();
  1640  000D8A  EC3C  F009         	call	_petNao	;wreg free
  1641                           
  1642                           ;main.c: 650:                 } else {
  1643  000D8E  EFCC  F006         	goto	l3230
  1644  000D92                     l3226:
  1645                           
  1646                           ; BSR set to: 0
  1647                           ;main.c: 651:                     fome++;
  1648  000D92  2BBA               	incf	main@fome& (0+255),f,b
  1649  000D94                     
  1650                           ; BSR set to: 0
  1651                           ;main.c: 652:                     petFome();
  1652  000D94  EC82  F00C         	call	_petFome	;wreg free
  1653  000D98                     l3230:
  1654                           
  1655                           ;main.c: 656:             if (((tecla) & (1<<(2)))) {
  1656  000D98  0100               	movlb	0	; () banked
  1657  000D9A  A5B9               	btfss	main@tecla& (0+255),2,b
  1658  000D9C  EFD2  F006         	goto	u3161
  1659  000DA0  EFD4  F006         	goto	u3160
  1660  000DA4                     u3161:
  1661  000DA4  EFE4  F006         	goto	l3240
  1662  000DA8                     u3160:
  1663  000DA8                     
  1664                           ; BSR set to: 0
  1665                           ;main.c: 657:                 if (fun == '7') {
  1666  000DA8  0E37               	movlw	55
  1667  000DAA  19BB               	xorwf	main@fun& (0+255),w,b
  1668  000DAC  A4D8               	btfss	status,2,c
  1669  000DAE  EFDB  F006         	goto	u3171
  1670  000DB2  EFDD  F006         	goto	u3170
  1671  000DB6                     u3171:
  1672  000DB6  EFE1  F006         	goto	l3236
  1673  000DBA                     u3170:
  1674  000DBA                     
  1675                           ; BSR set to: 0
  1676                           ;main.c: 658:                     petNao();
  1677  000DBA  EC3C  F009         	call	_petNao	;wreg free
  1678                           
  1679                           ;main.c: 659:                 } else {
  1680  000DBE  EFE4  F006         	goto	l3240
  1681  000DC2                     l3236:
  1682                           
  1683                           ; BSR set to: 0
  1684                           ;main.c: 660:                     fun++;
  1685  000DC2  2BBB               	incf	main@fun& (0+255),f,b
  1686  000DC4                     
  1687                           ; BSR set to: 0
  1688                           ;main.c: 661:                     petFun();
  1689  000DC4  ECD2  F00B         	call	_petFun	;wreg free
  1690  000DC8                     l3240:
  1691                           
  1692                           ;main.c: 666:         petX(fome, fun);
  1693  000DC8  C0BB  F00E         	movff	main@fun,petX@fun
  1694  000DCC  0100               	movlb	0	; () banked
  1695  000DCE  51BA               	movf	main@fome& (0+255),w,b
  1696  000DD0  EC29  F00A         	call	_petX
  1697                           
  1698                           ;main.c: 668:     }
  1699  000DD4  EFE5  F005         	goto	l3168
  1700  000DD8  EF00  F000         	goto	start
  1701  000DDC                     __end_of_main:
  1702                           	callstack 0
  1703                           
  1704 ;; *************** function _pwmInit *****************
  1705 ;; Defined at:
  1706 ;;		line 51 in file "pwm.c"
  1707 ;; Parameters:    Size  Location     Type
  1708 ;;		None
  1709 ;; Auto vars:     Size  Location     Type
  1710 ;;		None
  1711 ;; Return value:  Size  Location     Type
  1712 ;;                  1    wreg      void 
  1713 ;; Registers used:
  1714 ;;		wreg, status,2, status,0, cstack
  1715 ;; Tracked objects:
  1716 ;;		On entry : 0/0
  1717 ;;		On exit  : 0/0
  1718 ;;		Unchanged: 0/0
  1719 ;; Data sizes:     COMRAM   BANK0   BANK1   BANK2   BANK3   BANK4   BANK5
  1720 ;;      Params:         0       0       0       0       0       0       0
  1721 ;;      Locals:         0       0       0       0       0       0       0
  1722 ;;      Temps:          0       0       0       0       0       0       0
  1723 ;;      Totals:         0       0       0       0       0       0       0
  1724 ;;Total ram usage:        0 bytes
  1725 ;; Hardware stack levels used: 1
  1726 ;; Hardware stack levels required when called: 2
  1727 ;; This function calls:
  1728 ;;		_pwmFrequency
  1729 ;; This function is called by:
  1730 ;;		_main
  1731 ;; This function uses a non-reentrant model
  1732 ;;
  1733                           
  1734                           	psect	text1
  1735  00254A                     __ptext1:
  1736                           	callstack 0
  1737  00254A                     _pwmInit:
  1738                           	callstack 28
  1739  00254A                     
  1740                           ;pwm.c: 53:  ((TRISC) &= ~(1<<(2)));
  1741  00254A  9494               	bcf	148,2,c	;volatile
  1742  00254C                     
  1743                           ;pwm.c: 55:  T2CON |= 0b00000011;
  1744  00254C  0E03               	movlw	3
  1745  00254E  12CA               	iorwf	202,f,c	;volatile
  1746  002550                     
  1747                           ;pwm.c: 56:  ((T2CON) |= (1<<(2)));
  1748  002550  84CA               	bsf	202,2,c	;volatile
  1749  002552                     
  1750                           ;pwm.c: 58:  CCP1CON = 0b00001100;
  1751  002552  0E0C               	movlw	12
  1752  002554  6EBD               	movwf	189,c	;volatile
  1753  002556                     
  1754                           ;pwm.c: 60:     pwmFrequency(100);
  1755  002556  0E00               	movlw	0
  1756  002558  6E10               	movwf	(pwmFrequency@freq+1)^0,c
  1757  00255A  0E64               	movlw	100
  1758  00255C  6E0F               	movwf	pwmFrequency@freq^0,c
  1759  00255E  EC71  F012         	call	_pwmFrequency	;wreg free
  1760  002562  0012               	return		;funcret
  1761  002564                     __end_of_pwmInit:
  1762                           	callstack 0
  1763                           
  1764 ;; *************** function _pwmFrequency *****************
  1765 ;; Defined at:
  1766 ;;		line 44 in file "pwm.c"
  1767 ;; Parameters:    Size  Location     Type
  1768 ;;  freq            2   14[COMRAM] unsigned int 
  1769 ;; Auto vars:     Size  Location     Type
  1770 ;;		None
  1771 ;; Return value:  Size  Location     Type
  1772 ;;                  1    wreg      void 
  1773 ;; Registers used:
  1774 ;;		wreg, status,2, status,0, cstack
  1775 ;; Tracked objects:
  1776 ;;		On entry : 0/0
  1777 ;;		On exit  : 0/0
  1778 ;;		Unchanged: 0/0
  1779 ;; Data sizes:     COMRAM   BANK0   BANK1   BANK2   BANK3   BANK4   BANK5
  1780 ;;      Params:         2       0       0       0       0       0       0
  1781 ;;      Locals:         0       0       0       0       0       0       0
  1782 ;;      Temps:          0       0       0       0       0       0       0
  1783 ;;      Totals:         2       0       0       0       0       0       0
  1784 ;;Total ram usage:        2 bytes
  1785 ;; Hardware stack levels used: 1
  1786 ;; Hardware stack levels required when called: 1
  1787 ;; This function calls:
  1788 ;;		___aldiv
  1789 ;; This function is called by:
  1790 ;;		_pwmInit
  1791 ;; This function uses a non-reentrant model
  1792 ;;
  1793                           
  1794                           	psect	text2
  1795  0024E2                     __ptext2:
  1796                           	callstack 0
  1797  0024E2                     _pwmFrequency:
  1798                           	callstack 28
  1799  0024E2                     
  1800                           ;pwm.c: 44: void pwmFrequency(unsigned int freq);pwm.c: 45: {;pwm.c: 48:  PR2 = (125000l
      +                          /(freq)) - 1;
  1801  0024E2  0E48               	movlw	72
  1802  0024E4  6E01               	movwf	___aldiv@dividend^0,c
  1803  0024E6  0EE8               	movlw	232
  1804  0024E8  6E02               	movwf	(___aldiv@dividend+1)^0,c
  1805  0024EA  0E01               	movlw	1
  1806  0024EC  6E03               	movwf	(___aldiv@dividend+2)^0,c
  1807  0024EE  0E00               	movlw	0
  1808  0024F0  6E04               	movwf	(___aldiv@dividend+3)^0,c
  1809  0024F2  C00F  F005         	movff	pwmFrequency@freq,___aldiv@divisor
  1810  0024F6  C010  F006         	movff	pwmFrequency@freq+1,___aldiv@divisor+1
  1811  0024FA  6A07               	clrf	(___aldiv@divisor+2)^0,c
  1812  0024FC  6A08               	clrf	(___aldiv@divisor+3)^0,c
  1813  0024FE  ECB1  F00D         	call	___aldiv	;wreg free
  1814  002502  0401               	decf	?___aldiv^0,w,c
  1815  002504  6ECB               	movwf	203,c	;volatile
  1816  002506  0012               	return		;funcret
  1817  002508                     __end_of_pwmFrequency:
  1818                           	callstack 0
  1819                           
  1820 ;; *************** function ___aldiv *****************
  1821 ;; Defined at:
  1822 ;;		line 7 in file "D:\MPLAB X IDE\XC8\pic\sources\c99\common\aldiv.c"
  1823 ;; Parameters:    Size  Location     Type
  1824 ;;  dividend        4    0[COMRAM] long 
  1825 ;;  divisor         4    4[COMRAM] long 
  1826 ;; Auto vars:     Size  Location     Type
  1827 ;;  quotient        4   10[COMRAM] long 
  1828 ;;  sign            1    9[COMRAM] unsigned char 
  1829 ;;  counter         1    8[COMRAM] unsigned char 
  1830 ;; Return value:  Size  Location     Type
  1831 ;;                  4    0[COMRAM] long 
  1832 ;; Registers used:
  1833 ;;		wreg, status,2, status,0
  1834 ;; Tracked objects:
  1835 ;;		On entry : 0/0
  1836 ;;		On exit  : 0/0
  1837 ;;		Unchanged: 0/0
  1838 ;; Data sizes:     COMRAM   BANK0   BANK1   BANK2   BANK3   BANK4   BANK5
  1839 ;;      Params:         8       0       0       0       0       0       0
  1840 ;;      Locals:         6       0       0       0       0       0       0
  1841 ;;      Temps:          0       0       0       0       0       0       0
  1842 ;;      Totals:        14       0       0       0       0       0       0
  1843 ;;Total ram usage:       14 bytes
  1844 ;; Hardware stack levels used: 1
  1845 ;; This function calls:
  1846 ;;		Nothing
  1847 ;; This function is called by:
  1848 ;;		_pwmFrequency
  1849 ;; This function uses a non-reentrant model
  1850 ;;
  1851                           
  1852                           	psect	text3
  1853  001B62                     __ptext3:
  1854                           	callstack 0
  1855  001B62                     ___aldiv:
  1856                           	callstack 28
  1857  001B62  0E00               	movlw	0
  1858  001B64  6E0A               	movwf	___aldiv@sign^0,c
  1859  001B66  BE08               	btfsc	(___aldiv@divisor+3)^0,7,c
  1860  001B68  EFBA  F00D         	goto	u1880
  1861  001B6C  EFB8  F00D         	goto	u1881
  1862  001B70                     u1881:
  1863  001B70  EFC4  F00D         	goto	l2306
  1864  001B74                     u1880:
  1865  001B74  1E08               	comf	(___aldiv@divisor+3)^0,f,c
  1866  001B76  1E07               	comf	(___aldiv@divisor+2)^0,f,c
  1867  001B78  1E06               	comf	(___aldiv@divisor+1)^0,f,c
  1868  001B7A  6C05               	negf	___aldiv@divisor^0,c
  1869  001B7C  0E00               	movlw	0
  1870  001B7E  2206               	addwfc	(___aldiv@divisor+1)^0,f,c
  1871  001B80  2207               	addwfc	(___aldiv@divisor+2)^0,f,c
  1872  001B82  2208               	addwfc	(___aldiv@divisor+3)^0,f,c
  1873  001B84  0E01               	movlw	1
  1874  001B86  6E0A               	movwf	___aldiv@sign^0,c
  1875  001B88                     l2306:
  1876  001B88  BE04               	btfsc	(___aldiv@dividend+3)^0,7,c
  1877  001B8A  EFCB  F00D         	goto	u1890
  1878  001B8E  EFC9  F00D         	goto	u1891
  1879  001B92                     u1891:
  1880  001B92  EFD5  F00D         	goto	l2312
  1881  001B96                     u1890:
  1882  001B96  1E04               	comf	(___aldiv@dividend+3)^0,f,c
  1883  001B98  1E03               	comf	(___aldiv@dividend+2)^0,f,c
  1884  001B9A  1E02               	comf	(___aldiv@dividend+1)^0,f,c
  1885  001B9C  6C01               	negf	___aldiv@dividend^0,c
  1886  001B9E  0E00               	movlw	0
  1887  001BA0  2202               	addwfc	(___aldiv@dividend+1)^0,f,c
  1888  001BA2  2203               	addwfc	(___aldiv@dividend+2)^0,f,c
  1889  001BA4  2204               	addwfc	(___aldiv@dividend+3)^0,f,c
  1890  001BA6  0E01               	movlw	1
  1891  001BA8  1A0A               	xorwf	___aldiv@sign^0,f,c
  1892  001BAA                     l2312:
  1893  001BAA  0E00               	movlw	0
  1894  001BAC  6E0B               	movwf	___aldiv@quotient^0,c
  1895  001BAE  0E00               	movlw	0
  1896  001BB0  6E0C               	movwf	(___aldiv@quotient+1)^0,c
  1897  001BB2  0E00               	movlw	0
  1898  001BB4  6E0D               	movwf	(___aldiv@quotient+2)^0,c
  1899  001BB6  0E00               	movlw	0
  1900  001BB8  6E0E               	movwf	(___aldiv@quotient+3)^0,c
  1901  001BBA  5005               	movf	___aldiv@divisor^0,w,c
  1902  001BBC  1006               	iorwf	(___aldiv@divisor+1)^0,w,c
  1903  001BBE  1007               	iorwf	(___aldiv@divisor+2)^0,w,c
  1904  001BC0  1008               	iorwf	(___aldiv@divisor+3)^0,w,c
  1905  001BC2  B4D8               	btfsc	status,2,c
  1906  001BC4  EFE6  F00D         	goto	u1901
  1907  001BC8  EFE8  F00D         	goto	u1900
  1908  001BCC                     u1901:
  1909  001BCC  EF1E  F00E         	goto	l2334
  1910  001BD0                     u1900:
  1911  001BD0  0E01               	movlw	1
  1912  001BD2  6E09               	movwf	___aldiv@counter^0,c
  1913  001BD4  EFF2  F00D         	goto	l2320
  1914  001BD8                     l2318:
  1915  001BD8  90D8               	bcf	status,0,c
  1916  001BDA  3605               	rlcf	___aldiv@divisor^0,f,c
  1917  001BDC  3606               	rlcf	(___aldiv@divisor+1)^0,f,c
  1918  001BDE  3607               	rlcf	(___aldiv@divisor+2)^0,f,c
  1919  001BE0  3608               	rlcf	(___aldiv@divisor+3)^0,f,c
  1920  001BE2  2A09               	incf	___aldiv@counter^0,f,c
  1921  001BE4                     l2320:
  1922  001BE4  AE08               	btfss	(___aldiv@divisor+3)^0,7,c
  1923  001BE6  EFF7  F00D         	goto	u1911
  1924  001BEA  EFF9  F00D         	goto	u1910
  1925  001BEE                     u1911:
  1926  001BEE  EFEC  F00D         	goto	l2318
  1927  001BF2                     u1910:
  1928  001BF2                     l2322:
  1929  001BF2  90D8               	bcf	status,0,c
  1930  001BF4  360B               	rlcf	___aldiv@quotient^0,f,c
  1931  001BF6  360C               	rlcf	(___aldiv@quotient+1)^0,f,c
  1932  001BF8  360D               	rlcf	(___aldiv@quotient+2)^0,f,c
  1933  001BFA  360E               	rlcf	(___aldiv@quotient+3)^0,f,c
  1934  001BFC  5005               	movf	___aldiv@divisor^0,w,c
  1935  001BFE  5C01               	subwf	___aldiv@dividend^0,w,c
  1936  001C00  5006               	movf	(___aldiv@divisor+1)^0,w,c
  1937  001C02  5802               	subwfb	(___aldiv@dividend+1)^0,w,c
  1938  001C04  5007               	movf	(___aldiv@divisor+2)^0,w,c
  1939  001C06  5803               	subwfb	(___aldiv@dividend+2)^0,w,c
  1940  001C08  5008               	movf	(___aldiv@divisor+3)^0,w,c
  1941  001C0A  5804               	subwfb	(___aldiv@dividend+3)^0,w,c
  1942  001C0C  A0D8               	btfss	status,0,c
  1943  001C0E  EF0B  F00E         	goto	u1921
  1944  001C12  EF0D  F00E         	goto	u1920
  1945  001C16                     u1921:
  1946  001C16  EF16  F00E         	goto	l2330
  1947  001C1A                     u1920:
  1948  001C1A  5005               	movf	___aldiv@divisor^0,w,c
  1949  001C1C  5E01               	subwf	___aldiv@dividend^0,f,c
  1950  001C1E  5006               	movf	(___aldiv@divisor+1)^0,w,c
  1951  001C20  5A02               	subwfb	(___aldiv@dividend+1)^0,f,c
  1952  001C22  5007               	movf	(___aldiv@divisor+2)^0,w,c
  1953  001C24  5A03               	subwfb	(___aldiv@dividend+2)^0,f,c
  1954  001C26  5008               	movf	(___aldiv@divisor+3)^0,w,c
  1955  001C28  5A04               	subwfb	(___aldiv@dividend+3)^0,f,c
  1956  001C2A  800B               	bsf	___aldiv@quotient^0,0,c
  1957  001C2C                     l2330:
  1958  001C2C  90D8               	bcf	status,0,c
  1959  001C2E  3208               	rrcf	(___aldiv@divisor+3)^0,f,c
  1960  001C30  3207               	rrcf	(___aldiv@divisor+2)^0,f,c
  1961  001C32  3206               	rrcf	(___aldiv@divisor+1)^0,f,c
  1962  001C34  3205               	rrcf	___aldiv@divisor^0,f,c
  1963  001C36  2E09               	decfsz	___aldiv@counter^0,f,c
  1964  001C38  EFF9  F00D         	goto	l2322
  1965  001C3C                     l2334:
  1966  001C3C  500A               	movf	___aldiv@sign^0,w,c
  1967  001C3E  B4D8               	btfsc	status,2,c
  1968  001C40  EF24  F00E         	goto	u1931
  1969  001C44  EF26  F00E         	goto	u1930
  1970  001C48                     u1931:
  1971  001C48  EF2E  F00E         	goto	l2338
  1972  001C4C                     u1930:
  1973  001C4C  1E0E               	comf	(___aldiv@quotient+3)^0,f,c
  1974  001C4E  1E0D               	comf	(___aldiv@quotient+2)^0,f,c
  1975  001C50  1E0C               	comf	(___aldiv@quotient+1)^0,f,c
  1976  001C52  6C0B               	negf	___aldiv@quotient^0,c
  1977  001C54  0E00               	movlw	0
  1978  001C56  220C               	addwfc	(___aldiv@quotient+1)^0,f,c
  1979  001C58  220D               	addwfc	(___aldiv@quotient+2)^0,f,c
  1980  001C5A  220E               	addwfc	(___aldiv@quotient+3)^0,f,c
  1981  001C5C                     l2338:
  1982  001C5C  C00B  F001         	movff	___aldiv@quotient,?___aldiv
  1983  001C60  C00C  F002         	movff	___aldiv@quotient+1,?___aldiv+1
  1984  001C64  C00D  F003         	movff	___aldiv@quotient+2,?___aldiv+2
  1985  001C68  C00E  F004         	movff	___aldiv@quotient+3,?___aldiv+3
  1986  001C6C  0012               	return		;funcret
  1987  001C6E                     __end_of___aldiv:
  1988                           	callstack 0
  1989                           
  1990 ;; *************** function _petX *****************
  1991 ;; Defined at:
  1992 ;;		line 493 in file "main.c"
  1993 ;; Parameters:    Size  Location     Type
  1994 ;;  fome            1    wreg     unsigned char 
  1995 ;;  fun             1   13[COMRAM] unsigned char 
  1996 ;; Auto vars:     Size  Location     Type
  1997 ;;  fome            1   62[COMRAM] unsigned char 
  1998 ;;  pet_X          48   14[COMRAM] unsigned char [48]
  1999 ;;  i               1   63[COMRAM] unsigned char 
  2000 ;; Return value:  Size  Location     Type
  2001 ;;                  1    wreg      void 
  2002 ;; Registers used:
  2003 ;;		wreg, fsr1l, fsr1h, fsr2l, fsr2h, status,2, status,0, tblptrl, tblptrh, tblptru, cstack
  2004 ;; Tracked objects:
  2005 ;;		On entry : 0/0
  2006 ;;		On exit  : 0/0
  2007 ;;		Unchanged: 0/0
  2008 ;; Data sizes:     COMRAM   BANK0   BANK1   BANK2   BANK3   BANK4   BANK5
  2009 ;;      Params:         1       0       0       0       0       0       0
  2010 ;;      Locals:        50       0       0       0       0       0       0
  2011 ;;      Temps:          0       0       0       0       0       0       0
  2012 ;;      Totals:        51       0       0       0       0       0       0
  2013 ;;Total ram usage:       51 bytes
  2014 ;; Hardware stack levels used: 1
  2015 ;; Hardware stack levels required when called: 3
  2016 ;; This function calls:
  2017 ;;		_atraso_ms
  2018 ;;		_imprime
  2019 ;;		_lcdCommand
  2020 ;;		_lcdData
  2021 ;; This function is called by:
  2022 ;;		_main
  2023 ;; This function uses a non-reentrant model
  2024 ;;
  2025                           
  2026                           	psect	text4
  2027  001452                     __ptext4:
  2028                           	callstack 0
  2029  001452                     _petX:
  2030                           	callstack 27
  2031                           
  2032                           ;incstack = 0
  2033                           ;petX@fome stored from wreg
  2034  001452  6E3F               	movwf	petX@fome^0,c
  2035  001454                     
  2036                           ;main.c: 494:     unsigned char i;;main.c: 496:     unsigned char pet_X[48] = {0b00000, 
      +                          0b00000, 0b00000, 0b00001, 0b00011, 0b00110, 0b01101, 0b01100,
  2037  001454  EE22  F030         	lfsr	2,petX@F2453
  2038  001458  EE10  F00F         	lfsr	1,petX@pet_X
  2039  00145C  0E2F               	movlw	47
  2040  00145E                     u2541:
  2041  00145E  CFDB FFE3          	movff	plusw2,plusw1
  2042  001462  06E8               	decf	wreg,f,c
  2043  001464  E2FC               	bc	u2541
  2044  001466                     
  2045                           ;main.c: 503:     if(fome == '0'){
  2046  001466  0E30               	movlw	48
  2047  001468  183F               	xorwf	petX@fome^0,w,c
  2048  00146A  A4D8               	btfss	status,2,c
  2049  00146C  EF3A  F00A         	goto	u2551
  2050  001470  EF3C  F00A         	goto	u2550
  2051  001474                     u2551:
  2052  001474  EFA5  F00A         	goto	l2810
  2053  001478                     u2550:
  2054  001478                     
  2055                           ;main.c: 504:     lcdCommand(0x01);
  2056  001478  0E01               	movlw	1
  2057  00147A  ECBC  F010         	call	_lcdCommand
  2058                           
  2059                           ;main.c: 505:     lcdCommand(0x40);
  2060  00147E  0E40               	movlw	64
  2061  001480  ECBC  F010         	call	_lcdCommand
  2062                           
  2063                           ;main.c: 506:     lcdCommand(0x80 + 2);
  2064  001484  0E82               	movlw	130
  2065  001486  ECBC  F010         	call	_lcdCommand
  2066  00148A                     
  2067                           ;main.c: 507:     imprime("Game - Over!");
  2068  00148A  0E22               	movlw	low STR_1
  2069  00148C  6E09               	movwf	imprime@msg^0,c
  2070  00148E  0E06               	movlw	high STR_1
  2071  001490  6E0A               	movwf	(imprime@msg+1)^0,c
  2072  001492  EC33  F012         	call	_imprime	;wreg free
  2073  001496                     
  2074                           ;main.c: 509:     lcdCommand(0x40);
  2075  001496  0E40               	movlw	64
  2076  001498  ECBC  F010         	call	_lcdCommand
  2077  00149C                     
  2078                           ;main.c: 510:     for (i = 0; i < 64; i++) {
  2079  00149C  0E00               	movlw	0
  2080  00149E  6E40               	movwf	petX@i^0,c
  2081  0014A0                     l2798:
  2082                           
  2083                           ;main.c: 511:         lcdData(pet_X[i]);
  2084  0014A0  0E0F               	movlw	low petX@pet_X
  2085  0014A2  2440               	addwf	petX@i^0,w,c
  2086  0014A4  6ED9               	movwf	fsr2l,c
  2087  0014A6  6ADA               	clrf	fsr2h,c
  2088  0014A8  0E00               	movlw	high petX@pet_X
  2089  0014AA  22DA               	addwfc	fsr2h,f,c
  2090  0014AC  50DF               	movf	indf2,w,c
  2091  0014AE  EC09  F012         	call	_lcdData
  2092  0014B2                     
  2093                           ;main.c: 512:     }
  2094  0014B2  2A40               	incf	petX@i^0,f,c
  2095  0014B4  0E3F               	movlw	63
  2096  0014B6  6440               	cpfsgt	petX@i^0,c
  2097  0014B8  EF60  F00A         	goto	u2561
  2098  0014BC  EF62  F00A         	goto	u2560
  2099  0014C0                     u2561:
  2100  0014C0  EF50  F00A         	goto	l2798
  2101  0014C4                     u2560:
  2102  0014C4                     
  2103                           ;main.c: 513:     lcdCommand(0xC0 + 6);
  2104  0014C4  0EC6               	movlw	198
  2105  0014C6  ECBC  F010         	call	_lcdCommand
  2106                           
  2107                           ;main.c: 514:     lcdData(0);
  2108  0014CA  0E00               	movlw	0
  2109  0014CC  EC09  F012         	call	_lcdData
  2110                           
  2111                           ;main.c: 515:     lcdData(1);
  2112  0014D0  0E01               	movlw	1
  2113  0014D2  EC09  F012         	call	_lcdData
  2114                           
  2115                           ;main.c: 516:     lcdData(2);
  2116  0014D6  0E02               	movlw	2
  2117  0014D8  EC09  F012         	call	_lcdData
  2118                           
  2119                           ;main.c: 517:     lcdCommand(0x90 + 6);
  2120  0014DC  0E96               	movlw	150
  2121  0014DE  ECBC  F010         	call	_lcdCommand
  2122                           
  2123                           ;main.c: 518:     lcdData(3);
  2124  0014E2  0E03               	movlw	3
  2125  0014E4  EC09  F012         	call	_lcdData
  2126                           
  2127                           ;main.c: 519:     lcdData(4);
  2128  0014E8  0E04               	movlw	4
  2129  0014EA  EC09  F012         	call	_lcdData
  2130                           
  2131                           ;main.c: 520:     lcdData(5);
  2132  0014EE  0E05               	movlw	5
  2133  0014F0  EC09  F012         	call	_lcdData
  2134                           
  2135                           ;main.c: 521:     lcdCommand(0xD0 + 2);
  2136  0014F4  0ED2               	movlw	210
  2137  0014F6  ECBC  F010         	call	_lcdCommand
  2138                           
  2139                           ;main.c: 522:     lcdData('C');
  2140  0014FA  0E43               	movlw	67
  2141  0014FC  EC09  F012         	call	_lcdData
  2142                           
  2143                           ;main.c: 523:     lcdData('a');
  2144  001500  0E61               	movlw	97
  2145  001502  EC09  F012         	call	_lcdData
  2146                           
  2147                           ;main.c: 524:     lcdData('u');
  2148  001506  0E75               	movlw	117
  2149  001508  EC09  F012         	call	_lcdData
  2150                           
  2151                           ;main.c: 525:     lcdData('s');
  2152  00150C  0E73               	movlw	115
  2153  00150E  EC09  F012         	call	_lcdData
  2154                           
  2155                           ;main.c: 526:     lcdData('a');
  2156  001512  0E61               	movlw	97
  2157  001514  EC09  F012         	call	_lcdData
  2158                           
  2159                           ;main.c: 527:     lcdData(':');
  2160  001518  0E3A               	movlw	58
  2161  00151A  EC09  F012         	call	_lcdData
  2162                           
  2163                           ;main.c: 528:     lcdData(' ');
  2164  00151E  0E20               	movlw	32
  2165  001520  EC09  F012         	call	_lcdData
  2166                           
  2167                           ;main.c: 529:     lcdData('F');
  2168  001524  0E46               	movlw	70
  2169  001526  EC09  F012         	call	_lcdData
  2170                           
  2171                           ;main.c: 530:     lcdData('o');
  2172  00152A  0E6F               	movlw	111
  2173  00152C  EC09  F012         	call	_lcdData
  2174                           
  2175                           ;main.c: 531:     lcdData('m');
  2176  001530  0E6D               	movlw	109
  2177  001532  EC09  F012         	call	_lcdData
  2178                           
  2179                           ;main.c: 532:     lcdData('e');
  2180  001536  0E65               	movlw	101
  2181  001538  EC09  F012         	call	_lcdData
  2182  00153C                     
  2183                           ;main.c: 533:     ((PORTC) |= (1<<(1)));
  2184  00153C  8282               	bsf	130,1,c	;volatile
  2185  00153E                     
  2186                           ;main.c: 534:     atraso_ms(600000);
  2187  00153E  0E27               	movlw	39
  2188  001540  6E02               	movwf	(atraso_ms@valor+1)^0,c
  2189  001542  0EC0               	movlw	192
  2190  001544  6E01               	movwf	atraso_ms@valor^0,c
  2191  001546  ECA7  F011         	call	_atraso_ms	;wreg free
  2192  00154A                     l2810:
  2193                           
  2194                           ;main.c: 537:     if(fun == '0'){
  2195  00154A  0E30               	movlw	48
  2196  00154C  180E               	xorwf	petX@fun^0,w,c
  2197  00154E  A4D8               	btfss	status,2,c
  2198  001550  EFAC  F00A         	goto	u2571
  2199  001554  EFAE  F00A         	goto	u2570
  2200  001558                     u2571:
  2201  001558  EF14  F00B         	goto	l248
  2202  00155C                     u2570:
  2203  00155C                     
  2204                           ;main.c: 538:     lcdCommand(0x01);
  2205  00155C  0E01               	movlw	1
  2206  00155E  ECBC  F010         	call	_lcdCommand
  2207                           
  2208                           ;main.c: 539:     lcdCommand(0x40);
  2209  001562  0E40               	movlw	64
  2210  001564  ECBC  F010         	call	_lcdCommand
  2211                           
  2212                           ;main.c: 540:     lcdCommand(0x80 + 2);
  2213  001568  0E82               	movlw	130
  2214  00156A  ECBC  F010         	call	_lcdCommand
  2215  00156E                     
  2216                           ;main.c: 541:     imprime("Game - Over!");
  2217  00156E  0E22               	movlw	low STR_1
  2218  001570  6E09               	movwf	imprime@msg^0,c
  2219  001572  0E06               	movlw	high STR_1
  2220  001574  6E0A               	movwf	(imprime@msg+1)^0,c
  2221  001576  EC33  F012         	call	_imprime	;wreg free
  2222  00157A                     
  2223                           ;main.c: 543:     lcdCommand(0x40);
  2224  00157A  0E40               	movlw	64
  2225  00157C  ECBC  F010         	call	_lcdCommand
  2226  001580                     
  2227                           ;main.c: 544:     for (i = 0; i < 64; i++) {
  2228  001580  0E00               	movlw	0
  2229  001582  6E40               	movwf	petX@i^0,c
  2230  001584                     l2824:
  2231                           
  2232                           ;main.c: 545:         lcdData(pet_X[i]);
  2233  001584  0E0F               	movlw	low petX@pet_X
  2234  001586  2440               	addwf	petX@i^0,w,c
  2235  001588  6ED9               	movwf	fsr2l,c
  2236  00158A  6ADA               	clrf	fsr2h,c
  2237  00158C  0E00               	movlw	high petX@pet_X
  2238  00158E  22DA               	addwfc	fsr2h,f,c
  2239  001590  50DF               	movf	indf2,w,c
  2240  001592  EC09  F012         	call	_lcdData
  2241  001596                     
  2242                           ;main.c: 546:     }
  2243  001596  2A40               	incf	petX@i^0,f,c
  2244  001598  0E3F               	movlw	63
  2245  00159A  6440               	cpfsgt	petX@i^0,c
  2246  00159C  EFD2  F00A         	goto	u2581
  2247  0015A0  EFD4  F00A         	goto	u2580
  2248  0015A4                     u2581:
  2249  0015A4  EFC2  F00A         	goto	l2824
  2250  0015A8                     u2580:
  2251  0015A8                     
  2252                           ;main.c: 547:     lcdCommand(0xC0 + 6);
  2253  0015A8  0EC6               	movlw	198
  2254  0015AA  ECBC  F010         	call	_lcdCommand
  2255                           
  2256                           ;main.c: 548:     lcdData(0);
  2257  0015AE  0E00               	movlw	0
  2258  0015B0  EC09  F012         	call	_lcdData
  2259                           
  2260                           ;main.c: 549:     lcdData(1);
  2261  0015B4  0E01               	movlw	1
  2262  0015B6  EC09  F012         	call	_lcdData
  2263                           
  2264                           ;main.c: 550:     lcdData(2);
  2265  0015BA  0E02               	movlw	2
  2266  0015BC  EC09  F012         	call	_lcdData
  2267                           
  2268                           ;main.c: 551:     lcdCommand(0x90 + 6);
  2269  0015C0  0E96               	movlw	150
  2270  0015C2  ECBC  F010         	call	_lcdCommand
  2271                           
  2272                           ;main.c: 552:     lcdData(3);
  2273  0015C6  0E03               	movlw	3
  2274  0015C8  EC09  F012         	call	_lcdData
  2275                           
  2276                           ;main.c: 553:     lcdData(4);
  2277  0015CC  0E04               	movlw	4
  2278  0015CE  EC09  F012         	call	_lcdData
  2279                           
  2280                           ;main.c: 554:     lcdData(5);
  2281  0015D2  0E05               	movlw	5
  2282  0015D4  EC09  F012         	call	_lcdData
  2283                           
  2284                           ;main.c: 555:     lcdCommand(0xD0 + 2);
  2285  0015D8  0ED2               	movlw	210
  2286  0015DA  ECBC  F010         	call	_lcdCommand
  2287                           
  2288                           ;main.c: 556:     lcdData('C');
  2289  0015DE  0E43               	movlw	67
  2290  0015E0  EC09  F012         	call	_lcdData
  2291                           
  2292                           ;main.c: 557:     lcdData('a');
  2293  0015E4  0E61               	movlw	97
  2294  0015E6  EC09  F012         	call	_lcdData
  2295                           
  2296                           ;main.c: 558:     lcdData('u');
  2297  0015EA  0E75               	movlw	117
  2298  0015EC  EC09  F012         	call	_lcdData
  2299                           
  2300                           ;main.c: 559:     lcdData('s');
  2301  0015F0  0E73               	movlw	115
  2302  0015F2  EC09  F012         	call	_lcdData
  2303                           
  2304                           ;main.c: 560:     lcdData('a');
  2305  0015F6  0E61               	movlw	97
  2306  0015F8  EC09  F012         	call	_lcdData
  2307                           
  2308                           ;main.c: 561:     lcdData(':');
  2309  0015FC  0E3A               	movlw	58
  2310  0015FE  EC09  F012         	call	_lcdData
  2311                           
  2312                           ;main.c: 562:     lcdData(' ');
  2313  001602  0E20               	movlw	32
  2314  001604  EC09  F012         	call	_lcdData
  2315                           
  2316                           ;main.c: 563:     lcdData('F');
  2317  001608  0E46               	movlw	70
  2318  00160A  EC09  F012         	call	_lcdData
  2319                           
  2320                           ;main.c: 564:     lcdData('u');
  2321  00160E  0E75               	movlw	117
  2322  001610  EC09  F012         	call	_lcdData
  2323                           
  2324                           ;main.c: 565:     lcdData('n');
  2325  001614  0E6E               	movlw	110
  2326  001616  EC09  F012         	call	_lcdData
  2327  00161A                     
  2328                           ;main.c: 566:     ((PORTC) |= (1<<(1)));
  2329  00161A  8282               	bsf	130,1,c	;volatile
  2330  00161C                     
  2331                           ;main.c: 567:     atraso_ms(600000);
  2332  00161C  0E27               	movlw	39
  2333  00161E  6E02               	movwf	(atraso_ms@valor+1)^0,c
  2334  001620  0EC0               	movlw	192
  2335  001622  6E01               	movwf	atraso_ms@valor^0,c
  2336  001624  ECA7  F011         	call	_atraso_ms	;wreg free
  2337  001628                     l248:
  2338  001628  0012               	return		;funcret
  2339  00162A                     __end_of_petX:
  2340                           	callstack 0
  2341                           
  2342 ;; *************** function _imprime *****************
  2343 ;; Defined at:
  2344 ;;		line 483 in file "main.c"
  2345 ;; Parameters:    Size  Location     Type
  2346 ;;  msg             2    8[COMRAM] PTR const unsigned char 
  2347 ;;		 -> STR_3(17), STR_2(13), STR_1(13), 
  2348 ;; Auto vars:     Size  Location     Type
  2349 ;;  i               1   12[COMRAM] unsigned char 
  2350 ;; Return value:  Size  Location     Type
  2351 ;;                  1    wreg      void 
  2352 ;; Registers used:
  2353 ;;		wreg, status,2, status,0, tblptrl, tblptrh, tblptru, cstack
  2354 ;; Tracked objects:
  2355 ;;		On entry : 0/0
  2356 ;;		On exit  : 0/0
  2357 ;;		Unchanged: 0/0
  2358 ;; Data sizes:     COMRAM   BANK0   BANK1   BANK2   BANK3   BANK4   BANK5
  2359 ;;      Params:         2       0       0       0       0       0       0
  2360 ;;      Locals:         1       0       0       0       0       0       0
  2361 ;;      Temps:          2       0       0       0       0       0       0
  2362 ;;      Totals:         5       0       0       0       0       0       0
  2363 ;;Total ram usage:        5 bytes
  2364 ;; Hardware stack levels used: 1
  2365 ;; Hardware stack levels required when called: 2
  2366 ;; This function calls:
  2367 ;;		_lcdData
  2368 ;; This function is called by:
  2369 ;;		_petX
  2370 ;;		_main
  2371 ;; This function uses a non-reentrant model
  2372 ;;
  2373                           
  2374                           	psect	text5
  2375  002466                     __ptext5:
  2376                           	callstack 0
  2377  002466                     _imprime:
  2378                           	callstack 27
  2379  002466                     
  2380                           ;main.c: 484:     unsigned char i;;main.c: 486:     while (msg[i] != 0) {
  2381  002466  EF44  F012         	goto	l2468
  2382  00246A                     l2464:
  2383                           
  2384                           ;main.c: 487:         lcdData(msg[i]);
  2385  00246A  500D               	movf	imprime@i^0,w,c
  2386  00246C  2409               	addwf	imprime@msg^0,w,c
  2387  00246E  6E0B               	movwf	??_imprime^0,c
  2388  002470  0E00               	movlw	0
  2389  002472  200A               	addwfc	(imprime@msg+1)^0,w,c
  2390  002474  6E0C               	movwf	(??_imprime+1)^0,c
  2391  002476  C00B  FFF6         	movff	??_imprime,tblptrl
  2392  00247A  C00C  FFF7         	movff	??_imprime+1,tblptrh
  2393  00247E                     	if	0	;tblptru may be non-zero
  2394  00247E                     	endif
  2395  00247E                     	if	0	;tblptru may be non-zero
  2396  00247E                     	endif
  2397  00247E  0008               	tblrd		*
  2398  002480  50F5               	movf	tablat,w,c
  2399  002482  EC09  F012         	call	_lcdData
  2400  002486                     
  2401                           ;main.c: 488:         i++;
  2402  002486  2A0D               	incf	imprime@i^0,f,c
  2403  002488                     l2468:
  2404                           
  2405                           ;main.c: 486:     while (msg[i] != 0) {
  2406  002488  500D               	movf	imprime@i^0,w,c
  2407  00248A  2409               	addwf	imprime@msg^0,w,c
  2408  00248C  6E0B               	movwf	??_imprime^0,c
  2409  00248E  0E00               	movlw	0
  2410  002490  200A               	addwfc	(imprime@msg+1)^0,w,c
  2411  002492  6E0C               	movwf	(??_imprime+1)^0,c
  2412  002494  C00B  FFF6         	movff	??_imprime,tblptrl
  2413  002498  C00C  FFF7         	movff	??_imprime+1,tblptrh
  2414  00249C                     	if	0	;tblptru may be non-zero
  2415  00249C                     	endif
  2416  00249C                     	if	0	;tblptru may be non-zero
  2417  00249C                     	endif
  2418  00249C  0008               	tblrd		*
  2419  00249E  50F5               	movf	tablat,w,c
  2420  0024A0  0900               	iorlw	0
  2421  0024A2  A4D8               	btfss	status,2,c
  2422  0024A4  EF56  F012         	goto	u2221
  2423  0024A8  EF58  F012         	goto	u2220
  2424  0024AC                     u2221:
  2425  0024AC  EF35  F012         	goto	l2464
  2426  0024B0                     u2220:
  2427  0024B0  0012               	return		;funcret
  2428  0024B2                     __end_of_imprime:
  2429                           	callstack 0
  2430                           
  2431 ;; *************** function _petNao *****************
  2432 ;; Defined at:
  2433 ;;		line 272 in file "main.c"
  2434 ;; Parameters:    Size  Location     Type
  2435 ;;		None
  2436 ;; Auto vars:     Size  Location     Type
  2437 ;;  pet_nao2       48   56[COMRAM] unsigned char [48]
  2438 ;;  pet_nao1       48    8[COMRAM] unsigned char [48]
  2439 ;;  i               1  104[COMRAM] unsigned char 
  2440 ;; Return value:  Size  Location     Type
  2441 ;;                  1    wreg      void 
  2442 ;; Registers used:
  2443 ;;		wreg, fsr1l, fsr1h, fsr2l, fsr2h, status,2, status,0, cstack
  2444 ;; Tracked objects:
  2445 ;;		On entry : 0/0
  2446 ;;		On exit  : 0/0
  2447 ;;		Unchanged: 0/0
  2448 ;; Data sizes:     COMRAM   BANK0   BANK1   BANK2   BANK3   BANK4   BANK5
  2449 ;;      Params:         0       0       0       0       0       0       0
  2450 ;;      Locals:        97       0       0       0       0       0       0
  2451 ;;      Temps:          0       0       0       0       0       0       0
  2452 ;;      Totals:        97       0       0       0       0       0       0
  2453 ;;Total ram usage:       97 bytes
  2454 ;; Hardware stack levels used: 1
  2455 ;; Hardware stack levels required when called: 3
  2456 ;; This function calls:
  2457 ;;		_atraso_ms
  2458 ;;		_lcdCommand
  2459 ;;		_lcdData
  2460 ;; This function is called by:
  2461 ;;		_main
  2462 ;; This function uses a non-reentrant model
  2463 ;;
  2464                           
  2465                           	psect	text6
  2466  001278                     __ptext6:
  2467                           	callstack 0
  2468  001278                     _petNao:
  2469                           	callstack 27
  2470  001278                     
  2471                           ;main.c: 273:     unsigned char i;;main.c: 275:     unsigned char pet_nao1[48] = {0b0000
      +                          0, 0b00000, 0b00000, 0b00001, 0b00011, 0b00110, 0b01100, 0b01100,
  2472  001278  EE21  F081         	lfsr	2,petNao@F2430
  2473  00127C  EE10  F009         	lfsr	1,petNao@pet_nao1
  2474  001280  0E2F               	movlw	47
  2475  001282                     u2381:
  2476  001282  CFDB FFE3          	movff	plusw2,plusw1
  2477  001286  06E8               	decf	wreg,f,c
  2478  001288  E2FC               	bc	u2381
  2479                           
  2480                           ;main.c: 282:     unsigned char pet_nao2[48] = {0b00000, 0b00000, 0b00000, 0b00001, 0b00
      +                          011, 0b00110, 0b01100, 0b01100,
  2481  00128A  EE22  F0C0         	lfsr	2,petNao@F2432
  2482  00128E  EE10  F039         	lfsr	1,petNao@pet_nao2
  2483  001292  0E2F               	movlw	47
  2484  001294                     u2391:
  2485  001294  CFDB FFE3          	movff	plusw2,plusw1
  2486  001298  06E8               	decf	wreg,f,c
  2487  00129A  E2FC               	bc	u2391
  2488  00129C                     
  2489                           ;main.c: 289:     lcdCommand(0x01);
  2490  00129C  0E01               	movlw	1
  2491  00129E  ECBC  F010         	call	_lcdCommand
  2492  0012A2                     
  2493                           ;main.c: 290:     lcdCommand(0x40);
  2494  0012A2  0E40               	movlw	64
  2495  0012A4  ECBC  F010         	call	_lcdCommand
  2496  0012A8                     
  2497                           ;main.c: 292:     for (i = 0; i < 48; i++) {
  2498  0012A8  0E00               	movlw	0
  2499  0012AA  6E69               	movwf	petNao@i^0,c
  2500  0012AC                     l2628:
  2501                           
  2502                           ;main.c: 293:         lcdData(pet_nao1[i]);
  2503  0012AC  0E09               	movlw	low petNao@pet_nao1
  2504  0012AE  2469               	addwf	petNao@i^0,w,c
  2505  0012B0  6ED9               	movwf	fsr2l,c
  2506  0012B2  6ADA               	clrf	fsr2h,c
  2507  0012B4  0E00               	movlw	high petNao@pet_nao1
  2508  0012B6  22DA               	addwfc	fsr2h,f,c
  2509  0012B8  50DF               	movf	indf2,w,c
  2510  0012BA  EC09  F012         	call	_lcdData
  2511  0012BE                     
  2512                           ;main.c: 294:     }
  2513  0012BE  2A69               	incf	petNao@i^0,f,c
  2514  0012C0  0E2F               	movlw	47
  2515  0012C2  6469               	cpfsgt	petNao@i^0,c
  2516  0012C4  EF66  F009         	goto	u2401
  2517  0012C8  EF68  F009         	goto	u2400
  2518  0012CC                     u2401:
  2519  0012CC  EF56  F009         	goto	l2628
  2520  0012D0                     u2400:
  2521  0012D0                     
  2522                           ;main.c: 295:     lcdCommand(0xC0 + 6);
  2523  0012D0  0EC6               	movlw	198
  2524  0012D2  ECBC  F010         	call	_lcdCommand
  2525                           
  2526                           ;main.c: 296:     lcdData(0);
  2527  0012D6  0E00               	movlw	0
  2528  0012D8  EC09  F012         	call	_lcdData
  2529                           
  2530                           ;main.c: 297:     lcdData(1);
  2531  0012DC  0E01               	movlw	1
  2532  0012DE  EC09  F012         	call	_lcdData
  2533                           
  2534                           ;main.c: 298:     lcdData(2);
  2535  0012E2  0E02               	movlw	2
  2536  0012E4  EC09  F012         	call	_lcdData
  2537                           
  2538                           ;main.c: 299:     lcdCommand(0x90 + 6);
  2539  0012E8  0E96               	movlw	150
  2540  0012EA  ECBC  F010         	call	_lcdCommand
  2541                           
  2542                           ;main.c: 300:     lcdData(3);
  2543  0012EE  0E03               	movlw	3
  2544  0012F0  EC09  F012         	call	_lcdData
  2545                           
  2546                           ;main.c: 301:     lcdData(4);
  2547  0012F4  0E04               	movlw	4
  2548  0012F6  EC09  F012         	call	_lcdData
  2549                           
  2550                           ;main.c: 302:     lcdData(5);
  2551  0012FA  0E05               	movlw	5
  2552  0012FC  EC09  F012         	call	_lcdData
  2553                           
  2554                           ;main.c: 304:     atraso_ms(1000);
  2555  001300  0E03               	movlw	3
  2556  001302  6E02               	movwf	(atraso_ms@valor+1)^0,c
  2557  001304  0EE8               	movlw	232
  2558  001306  6E01               	movwf	atraso_ms@valor^0,c
  2559  001308  ECA7  F011         	call	_atraso_ms	;wreg free
  2560                           
  2561                           ;main.c: 305:     lcdCommand(0x40);
  2562  00130C  0E40               	movlw	64
  2563  00130E  ECBC  F010         	call	_lcdCommand
  2564  001312                     
  2565                           ;main.c: 307:     for (i = 0; i < 48; i++) {
  2566  001312  0E00               	movlw	0
  2567  001314  6E69               	movwf	petNao@i^0,c
  2568  001316                     l2642:
  2569                           
  2570                           ;main.c: 308:         lcdData(pet_nao2[i]);
  2571  001316  0E39               	movlw	low petNao@pet_nao2
  2572  001318  2469               	addwf	petNao@i^0,w,c
  2573  00131A  6ED9               	movwf	fsr2l,c
  2574  00131C  6ADA               	clrf	fsr2h,c
  2575  00131E  0E00               	movlw	high petNao@pet_nao2
  2576  001320  22DA               	addwfc	fsr2h,f,c
  2577  001322  50DF               	movf	indf2,w,c
  2578  001324  EC09  F012         	call	_lcdData
  2579  001328                     
  2580                           ;main.c: 309:     }
  2581  001328  2A69               	incf	petNao@i^0,f,c
  2582  00132A  0E2F               	movlw	47
  2583  00132C  6469               	cpfsgt	petNao@i^0,c
  2584  00132E  EF9B  F009         	goto	u2411
  2585  001332  EF9D  F009         	goto	u2410
  2586  001336                     u2411:
  2587  001336  EF8B  F009         	goto	l2642
  2588  00133A                     u2410:
  2589  00133A                     
  2590                           ;main.c: 310:     lcdCommand(0xC0 + 6);
  2591  00133A  0EC6               	movlw	198
  2592  00133C  ECBC  F010         	call	_lcdCommand
  2593                           
  2594                           ;main.c: 311:     lcdData(0);
  2595  001340  0E00               	movlw	0
  2596  001342  EC09  F012         	call	_lcdData
  2597                           
  2598                           ;main.c: 312:     lcdData(1);
  2599  001346  0E01               	movlw	1
  2600  001348  EC09  F012         	call	_lcdData
  2601                           
  2602                           ;main.c: 313:     lcdData(2);
  2603  00134C  0E02               	movlw	2
  2604  00134E  EC09  F012         	call	_lcdData
  2605                           
  2606                           ;main.c: 314:     lcdCommand(0x90 + 6);
  2607  001352  0E96               	movlw	150
  2608  001354  ECBC  F010         	call	_lcdCommand
  2609                           
  2610                           ;main.c: 315:     lcdData(3);
  2611  001358  0E03               	movlw	3
  2612  00135A  EC09  F012         	call	_lcdData
  2613                           
  2614                           ;main.c: 316:     lcdData(4);
  2615  00135E  0E04               	movlw	4
  2616  001360  EC09  F012         	call	_lcdData
  2617                           
  2618                           ;main.c: 317:     lcdData(5);
  2619  001364  0E05               	movlw	5
  2620  001366  EC09  F012         	call	_lcdData
  2621                           
  2622                           ;main.c: 319:     atraso_ms(1000);
  2623  00136A  0E03               	movlw	3
  2624  00136C  6E02               	movwf	(atraso_ms@valor+1)^0,c
  2625  00136E  0EE8               	movlw	232
  2626  001370  6E01               	movwf	atraso_ms@valor^0,c
  2627  001372  ECA7  F011         	call	_atraso_ms	;wreg free
  2628                           
  2629                           ;main.c: 320:     lcdCommand(0x40);
  2630  001376  0E40               	movlw	64
  2631  001378  ECBC  F010         	call	_lcdCommand
  2632  00137C                     
  2633                           ;main.c: 322:     for (i = 0; i < 48; i++) {
  2634  00137C  0E00               	movlw	0
  2635  00137E  6E69               	movwf	petNao@i^0,c
  2636  001380                     l2656:
  2637                           
  2638                           ;main.c: 323:         lcdData(pet_nao1[i]);
  2639  001380  0E09               	movlw	low petNao@pet_nao1
  2640  001382  2469               	addwf	petNao@i^0,w,c
  2641  001384  6ED9               	movwf	fsr2l,c
  2642  001386  6ADA               	clrf	fsr2h,c
  2643  001388  0E00               	movlw	high petNao@pet_nao1
  2644  00138A  22DA               	addwfc	fsr2h,f,c
  2645  00138C  50DF               	movf	indf2,w,c
  2646  00138E  EC09  F012         	call	_lcdData
  2647  001392                     
  2648                           ;main.c: 324:     }
  2649  001392  2A69               	incf	petNao@i^0,f,c
  2650  001394  0E2F               	movlw	47
  2651  001396  6469               	cpfsgt	petNao@i^0,c
  2652  001398  EFD0  F009         	goto	u2421
  2653  00139C  EFD2  F009         	goto	u2420
  2654  0013A0                     u2421:
  2655  0013A0  EFC0  F009         	goto	l2656
  2656  0013A4                     u2420:
  2657  0013A4                     
  2658                           ;main.c: 325:     lcdCommand(0xC0 + 6);
  2659  0013A4  0EC6               	movlw	198
  2660  0013A6  ECBC  F010         	call	_lcdCommand
  2661                           
  2662                           ;main.c: 326:     lcdData(0);
  2663  0013AA  0E00               	movlw	0
  2664  0013AC  EC09  F012         	call	_lcdData
  2665                           
  2666                           ;main.c: 327:     lcdData(1);
  2667  0013B0  0E01               	movlw	1
  2668  0013B2  EC09  F012         	call	_lcdData
  2669                           
  2670                           ;main.c: 328:     lcdData(2);
  2671  0013B6  0E02               	movlw	2
  2672  0013B8  EC09  F012         	call	_lcdData
  2673                           
  2674                           ;main.c: 329:     lcdCommand(0x90 + 6);
  2675  0013BC  0E96               	movlw	150
  2676  0013BE  ECBC  F010         	call	_lcdCommand
  2677                           
  2678                           ;main.c: 330:     lcdData(3);
  2679  0013C2  0E03               	movlw	3
  2680  0013C4  EC09  F012         	call	_lcdData
  2681                           
  2682                           ;main.c: 331:     lcdData(4);
  2683  0013C8  0E04               	movlw	4
  2684  0013CA  EC09  F012         	call	_lcdData
  2685                           
  2686                           ;main.c: 332:     lcdData(5);
  2687  0013CE  0E05               	movlw	5
  2688  0013D0  EC09  F012         	call	_lcdData
  2689                           
  2690                           ;main.c: 334:     atraso_ms(1000);
  2691  0013D4  0E03               	movlw	3
  2692  0013D6  6E02               	movwf	(atraso_ms@valor+1)^0,c
  2693  0013D8  0EE8               	movlw	232
  2694  0013DA  6E01               	movwf	atraso_ms@valor^0,c
  2695  0013DC  ECA7  F011         	call	_atraso_ms	;wreg free
  2696                           
  2697                           ;main.c: 335:     lcdCommand(0x40);
  2698  0013E0  0E40               	movlw	64
  2699  0013E2  ECBC  F010         	call	_lcdCommand
  2700  0013E6                     
  2701                           ;main.c: 337:     for (i = 0; i < 48; i++) {
  2702  0013E6  0E00               	movlw	0
  2703  0013E8  6E69               	movwf	petNao@i^0,c
  2704  0013EA                     l2670:
  2705                           
  2706                           ;main.c: 338:         lcdData(pet_nao2[i]);
  2707  0013EA  0E39               	movlw	low petNao@pet_nao2
  2708  0013EC  2469               	addwf	petNao@i^0,w,c
  2709  0013EE  6ED9               	movwf	fsr2l,c
  2710  0013F0  6ADA               	clrf	fsr2h,c
  2711  0013F2  0E00               	movlw	high petNao@pet_nao2
  2712  0013F4  22DA               	addwfc	fsr2h,f,c
  2713  0013F6  50DF               	movf	indf2,w,c
  2714  0013F8  EC09  F012         	call	_lcdData
  2715  0013FC                     
  2716                           ;main.c: 339:     }
  2717  0013FC  2A69               	incf	petNao@i^0,f,c
  2718  0013FE  0E2F               	movlw	47
  2719  001400  6469               	cpfsgt	petNao@i^0,c
  2720  001402  EF05  F00A         	goto	u2431
  2721  001406  EF07  F00A         	goto	u2430
  2722  00140A                     u2431:
  2723  00140A  EFF5  F009         	goto	l2670
  2724  00140E                     u2430:
  2725  00140E                     
  2726                           ;main.c: 340:     lcdCommand(0xC0 + 6);
  2727  00140E  0EC6               	movlw	198
  2728  001410  ECBC  F010         	call	_lcdCommand
  2729                           
  2730                           ;main.c: 341:     lcdData(0);
  2731  001414  0E00               	movlw	0
  2732  001416  EC09  F012         	call	_lcdData
  2733                           
  2734                           ;main.c: 342:     lcdData(1);
  2735  00141A  0E01               	movlw	1
  2736  00141C  EC09  F012         	call	_lcdData
  2737                           
  2738                           ;main.c: 343:     lcdData(2);
  2739  001420  0E02               	movlw	2
  2740  001422  EC09  F012         	call	_lcdData
  2741                           
  2742                           ;main.c: 344:     lcdCommand(0x90 + 6);
  2743  001426  0E96               	movlw	150
  2744  001428  ECBC  F010         	call	_lcdCommand
  2745                           
  2746                           ;main.c: 345:     lcdData(3);
  2747  00142C  0E03               	movlw	3
  2748  00142E  EC09  F012         	call	_lcdData
  2749                           
  2750                           ;main.c: 346:     lcdData(4);
  2751  001432  0E04               	movlw	4
  2752  001434  EC09  F012         	call	_lcdData
  2753                           
  2754                           ;main.c: 347:     lcdData(5);
  2755  001438  0E05               	movlw	5
  2756  00143A  EC09  F012         	call	_lcdData
  2757                           
  2758                           ;main.c: 349:     atraso_ms(1000);
  2759  00143E  0E03               	movlw	3
  2760  001440  6E02               	movwf	(atraso_ms@valor+1)^0,c
  2761  001442  0EE8               	movlw	232
  2762  001444  6E01               	movwf	atraso_ms@valor^0,c
  2763  001446  ECA7  F011         	call	_atraso_ms	;wreg free
  2764                           
  2765                           ;main.c: 350:     lcdCommand(0x01);
  2766  00144A  0E01               	movlw	1
  2767  00144C  ECBC  F010         	call	_lcdCommand
  2768  001450  0012               	return		;funcret
  2769  001452                     __end_of_petNao:
  2770                           	callstack 0
  2771                           
  2772 ;; *************** function _petInicio *****************
  2773 ;; Defined at:
  2774 ;;		line 24 in file "main.c"
  2775 ;; Parameters:    Size  Location     Type
  2776 ;;		None
  2777 ;; Auto vars:     Size  Location     Type
  2778 ;;  pet_deitado    48   56[COMRAM] unsigned char [48]
  2779 ;;  pet            48    8[COMRAM] unsigned char [48]
  2780 ;;  i               1  104[COMRAM] unsigned char 
  2781 ;; Return value:  Size  Location     Type
  2782 ;;                  1    wreg      void 
  2783 ;; Registers used:
  2784 ;;		wreg, fsr1l, fsr1h, fsr2l, fsr2h, status,2, status,0, cstack
  2785 ;; Tracked objects:
  2786 ;;		On entry : 0/0
  2787 ;;		On exit  : 0/0
  2788 ;;		Unchanged: 0/0
  2789 ;; Data sizes:     COMRAM   BANK0   BANK1   BANK2   BANK3   BANK4   BANK5
  2790 ;;      Params:         0       0       0       0       0       0       0
  2791 ;;      Locals:        97       0       0       0       0       0       0
  2792 ;;      Temps:          0       0       0       0       0       0       0
  2793 ;;      Totals:        97       0       0       0       0       0       0
  2794 ;;Total ram usage:       97 bytes
  2795 ;; Hardware stack levels used: 1
  2796 ;; Hardware stack levels required when called: 3
  2797 ;; This function calls:
  2798 ;;		_atraso_ms
  2799 ;;		_lcdCommand
  2800 ;;		_lcdData
  2801 ;; This function is called by:
  2802 ;;		_main
  2803 ;; This function uses a non-reentrant model
  2804 ;;
  2805                           
  2806                           	psect	text7
  2807  001E78                     __ptext7:
  2808                           	callstack 0
  2809  001E78                     _petInicio:
  2810                           	callstack 27
  2811  001E78                     
  2812                           ;main.c: 25:     unsigned char i;;main.c: 27:     unsigned char pet[48] = {0b00000, 0b00
      +                          000, 0b00000, 0b00001, 0b00011, 0b00110, 0b01100, 0b01100,
  2813  001E78  EE20  F0BD         	lfsr	2,petInicio@F2420
  2814  001E7C  EE10  F009         	lfsr	1,petInicio@pet
  2815  001E80  0E2F               	movlw	47
  2816  001E82                     u2341:
  2817  001E82  CFDB FFE3          	movff	plusw2,plusw1
  2818  001E86  06E8               	decf	wreg,f,c
  2819  001E88  E2FC               	bc	u2341
  2820                           
  2821                           ;main.c: 34:     unsigned char pet_deitado[48] = {0b00000, 0b00000, 0b00000, 0b00000, 0b
      +                          00000, 0b00000, 0b0011, 0b00110,
  2822  001E8A  EE21  F0B1         	lfsr	2,petInicio@F2422
  2823  001E8E  EE10  F039         	lfsr	1,petInicio@pet_deitado
  2824  001E92  0E2F               	movlw	47
  2825  001E94                     u2351:
  2826  001E94  CFDB FFE3          	movff	plusw2,plusw1
  2827  001E98  06E8               	decf	wreg,f,c
  2828  001E9A  E2FC               	bc	u2351
  2829  001E9C                     
  2830                           ;main.c: 41:     lcdCommand(0x40);
  2831  001E9C  0E40               	movlw	64
  2832  001E9E  ECBC  F010         	call	_lcdCommand
  2833  001EA2                     
  2834                           ;main.c: 43:     for (i = 0; i < 48; i++) {
  2835  001EA2  0E00               	movlw	0
  2836  001EA4  6E69               	movwf	petInicio@i^0,c
  2837  001EA6                     l2540:
  2838                           
  2839                           ;main.c: 44:         lcdData(pet[i]);
  2840  001EA6  0E09               	movlw	low petInicio@pet
  2841  001EA8  2469               	addwf	petInicio@i^0,w,c
  2842  001EAA  6ED9               	movwf	fsr2l,c
  2843  001EAC  6ADA               	clrf	fsr2h,c
  2844  001EAE  0E00               	movlw	high petInicio@pet
  2845  001EB0  22DA               	addwfc	fsr2h,f,c
  2846  001EB2  50DF               	movf	indf2,w,c
  2847  001EB4  EC09  F012         	call	_lcdData
  2848  001EB8                     
  2849                           ;main.c: 45:     }
  2850  001EB8  2A69               	incf	petInicio@i^0,f,c
  2851  001EBA  0E2F               	movlw	47
  2852  001EBC  6469               	cpfsgt	petInicio@i^0,c
  2853  001EBE  EF63  F00F         	goto	u2361
  2854  001EC2  EF65  F00F         	goto	u2360
  2855  001EC6                     u2361:
  2856  001EC6  EF53  F00F         	goto	l2540
  2857  001ECA                     u2360:
  2858  001ECA                     
  2859                           ;main.c: 46:     lcdCommand(0xC0 + 6);
  2860  001ECA  0EC6               	movlw	198
  2861  001ECC  ECBC  F010         	call	_lcdCommand
  2862                           
  2863                           ;main.c: 47:     lcdData(0);
  2864  001ED0  0E00               	movlw	0
  2865  001ED2  EC09  F012         	call	_lcdData
  2866                           
  2867                           ;main.c: 48:     lcdData(1);
  2868  001ED6  0E01               	movlw	1
  2869  001ED8  EC09  F012         	call	_lcdData
  2870                           
  2871                           ;main.c: 49:     lcdData(2);
  2872  001EDC  0E02               	movlw	2
  2873  001EDE  EC09  F012         	call	_lcdData
  2874                           
  2875                           ;main.c: 50:     lcdCommand(0x90 + 6);
  2876  001EE2  0E96               	movlw	150
  2877  001EE4  ECBC  F010         	call	_lcdCommand
  2878                           
  2879                           ;main.c: 51:     lcdData(3);
  2880  001EE8  0E03               	movlw	3
  2881  001EEA  EC09  F012         	call	_lcdData
  2882                           
  2883                           ;main.c: 52:     lcdData(4);
  2884  001EEE  0E04               	movlw	4
  2885  001EF0  EC09  F012         	call	_lcdData
  2886                           
  2887                           ;main.c: 53:     lcdData(5);
  2888  001EF4  0E05               	movlw	5
  2889  001EF6  EC09  F012         	call	_lcdData
  2890                           
  2891                           ;main.c: 54:     atraso_ms(500);
  2892  001EFA  0E01               	movlw	1
  2893  001EFC  6E02               	movwf	(atraso_ms@valor+1)^0,c
  2894  001EFE  0EF4               	movlw	244
  2895  001F00  6E01               	movwf	atraso_ms@valor^0,c
  2896  001F02  ECA7  F011         	call	_atraso_ms	;wreg free
  2897                           
  2898                           ;main.c: 56:     lcdCommand(0x40);
  2899  001F06  0E40               	movlw	64
  2900  001F08  ECBC  F010         	call	_lcdCommand
  2901  001F0C                     
  2902                           ;main.c: 58:     for (i = 0; i < 48; i++) {
  2903  001F0C  0E00               	movlw	0
  2904  001F0E  6E69               	movwf	petInicio@i^0,c
  2905  001F10                     l2554:
  2906                           
  2907                           ;main.c: 59:         lcdData(pet_deitado[i]);
  2908  001F10  0E39               	movlw	low petInicio@pet_deitado
  2909  001F12  2469               	addwf	petInicio@i^0,w,c
  2910  001F14  6ED9               	movwf	fsr2l,c
  2911  001F16  6ADA               	clrf	fsr2h,c
  2912  001F18  0E00               	movlw	high petInicio@pet_deitado
  2913  001F1A  22DA               	addwfc	fsr2h,f,c
  2914  001F1C  50DF               	movf	indf2,w,c
  2915  001F1E  EC09  F012         	call	_lcdData
  2916  001F22                     
  2917                           ;main.c: 60:     }
  2918  001F22  2A69               	incf	petInicio@i^0,f,c
  2919  001F24  0E2F               	movlw	47
  2920  001F26  6469               	cpfsgt	petInicio@i^0,c
  2921  001F28  EF98  F00F         	goto	u2371
  2922  001F2C  EF9A  F00F         	goto	u2370
  2923  001F30                     u2371:
  2924  001F30  EF88  F00F         	goto	l2554
  2925  001F34                     u2370:
  2926  001F34                     
  2927                           ;main.c: 61:     lcdCommand(0xC0 + 6);
  2928  001F34  0EC6               	movlw	198
  2929  001F36  ECBC  F010         	call	_lcdCommand
  2930                           
  2931                           ;main.c: 62:     lcdData(0);
  2932  001F3A  0E00               	movlw	0
  2933  001F3C  EC09  F012         	call	_lcdData
  2934                           
  2935                           ;main.c: 63:     lcdData(1);
  2936  001F40  0E01               	movlw	1
  2937  001F42  EC09  F012         	call	_lcdData
  2938                           
  2939                           ;main.c: 64:     lcdData(2);
  2940  001F46  0E02               	movlw	2
  2941  001F48  EC09  F012         	call	_lcdData
  2942                           
  2943                           ;main.c: 65:     lcdCommand(0x90 + 6);
  2944  001F4C  0E96               	movlw	150
  2945  001F4E  ECBC  F010         	call	_lcdCommand
  2946                           
  2947                           ;main.c: 66:     lcdData(3);
  2948  001F52  0E03               	movlw	3
  2949  001F54  EC09  F012         	call	_lcdData
  2950                           
  2951                           ;main.c: 67:     lcdData(4);
  2952  001F58  0E04               	movlw	4
  2953  001F5A  EC09  F012         	call	_lcdData
  2954                           
  2955                           ;main.c: 68:     lcdData(5);
  2956  001F5E  0E05               	movlw	5
  2957  001F60  EC09  F012         	call	_lcdData
  2958                           
  2959                           ;main.c: 69:     atraso_ms(500);
  2960  001F64  0E01               	movlw	1
  2961  001F66  6E02               	movwf	(atraso_ms@valor+1)^0,c
  2962  001F68  0EF4               	movlw	244
  2963  001F6A  6E01               	movwf	atraso_ms@valor^0,c
  2964  001F6C  ECA7  F011         	call	_atraso_ms	;wreg free
  2965  001F70  0012               	return		;funcret
  2966  001F72                     __end_of_petInicio:
  2967                           	callstack 0
  2968                           
  2969 ;; *************** function _petFun *****************
  2970 ;; Defined at:
  2971 ;;		line 354 in file "main.c"
  2972 ;; Parameters:    Size  Location     Type
  2973 ;;		None
  2974 ;; Auto vars:     Size  Location     Type
  2975 ;;  pet_fun2       64   64[BANK1 ] unsigned char [64]
  2976 ;;  pet_fun1       64    0[BANK1 ] unsigned char [64]
  2977 ;;  i               1  128[BANK1 ] unsigned char 
  2978 ;; Return value:  Size  Location     Type
  2979 ;;                  1    wreg      void 
  2980 ;; Registers used:
  2981 ;;		wreg, fsr1l, fsr1h, fsr2l, fsr2h, status,2, status,0, prodl, prodh, cstack
  2982 ;; Tracked objects:
  2983 ;;		On entry : 0/0
  2984 ;;		On exit  : 0/0
  2985 ;;		Unchanged: 0/0
  2986 ;; Data sizes:     COMRAM   BANK0   BANK1   BANK2   BANK3   BANK4   BANK5
  2987 ;;      Params:         0       0       0       0       0       0       0
  2988 ;;      Locals:         0       0     129       0       0       0       0
  2989 ;;      Temps:          0       0       0       0       0       0       0
  2990 ;;      Totals:         0       0     129       0       0       0       0
  2991 ;;Total ram usage:      129 bytes
  2992 ;; Hardware stack levels used: 1
  2993 ;; Hardware stack levels required when called: 3
  2994 ;; This function calls:
  2995 ;;		_atraso_ms
  2996 ;;		_lcdCommand
  2997 ;;		_lcdData
  2998 ;;		_pwmSet
  2999 ;; This function is called by:
  3000 ;;		_main
  3001 ;; This function uses a non-reentrant model
  3002 ;;
  3003                           
  3004                           	psect	text8
  3005  0017A4                     __ptext8:
  3006                           	callstack 0
  3007  0017A4                     _petFun:
  3008                           	callstack 27
  3009  0017A4                     
  3010                           ;main.c: 355:     unsigned char i;;main.c: 357:     unsigned char pet_fun1[64] = {0b0000
      +                          0, 0b00000, 0b00000, 0b00001, 0b00011, 0b00110, 0b01100, 0b01100,
  3011  0017A4  EE23  F040         	lfsr	2,petFun@F2436
  3012  0017A8  EE11  F000         	lfsr	1,petFun@pet_fun1
  3013  0017AC  0E3F               	movlw	63
  3014  0017AE                     u2441:
  3015  0017AE  CFDB FFE3          	movff	plusw2,plusw1
  3016  0017B2  06E8               	decf	wreg,f,c
  3017  0017B4  E2FC               	bc	u2441
  3018                           
  3019                           ;main.c: 366:     unsigned char pet_fun2[64] = {0b00000, 0b00000, 0b00000, 0b00001, 0b00
      +                          011, 0b00110, 0b01100, 0b01100,
  3020  0017B6  EE23  F000         	lfsr	2,petFun@F2438
  3021  0017BA  EE11  F040         	lfsr	1,petFun@pet_fun2
  3022  0017BE  0E3F               	movlw	63
  3023  0017C0                     u2451:
  3024  0017C0  CFDB FFE3          	movff	plusw2,plusw1
  3025  0017C4  06E8               	decf	wreg,f,c
  3026  0017C6  E2FC               	bc	u2451
  3027  0017C8                     
  3028                           ;main.c: 375:     pwmSet(90);
  3029  0017C8  0E5A               	movlw	90
  3030  0017CA  EC71  F011         	call	_pwmSet
  3031  0017CE                     
  3032                           ;main.c: 376:     lcdCommand(0x01);
  3033  0017CE  0E01               	movlw	1
  3034  0017D0  ECBC  F010         	call	_lcdCommand
  3035  0017D4                     
  3036                           ;main.c: 377:     lcdCommand(0x40);
  3037  0017D4  0E40               	movlw	64
  3038  0017D6  ECBC  F010         	call	_lcdCommand
  3039  0017DA                     
  3040                           ;main.c: 379:     for (i = 0; i < 64; i++) {
  3041  0017DA  0E00               	movlw	0
  3042  0017DC  0101               	movlb	1	; () banked
  3043  0017DE  6F80               	movwf	petFun@i& (0+255),b
  3044  0017E0                     l2692:
  3045                           
  3046                           ; BSR set to: 1
  3047                           ;main.c: 380:         lcdData(pet_fun1[i]);
  3048  0017E0  0E00               	movlw	low petFun@pet_fun1
  3049  0017E2  2580               	addwf	petFun@i& (0+255),w,b
  3050  0017E4  6ED9               	movwf	fsr2l,c
  3051  0017E6  6ADA               	clrf	fsr2h,c
  3052  0017E8  0E01               	movlw	high petFun@pet_fun1
  3053  0017EA  22DA               	addwfc	fsr2h,f,c
  3054  0017EC  50DF               	movf	indf2,w,c
  3055  0017EE  EC09  F012         	call	_lcdData
  3056  0017F2                     
  3057                           ;main.c: 381:     }
  3058  0017F2  0101               	movlb	1	; () banked
  3059  0017F4  2B80               	incf	petFun@i& (0+255),f,b
  3060  0017F6                     
  3061                           ; BSR set to: 1
  3062  0017F6  0E3F               	movlw	63
  3063  0017F8  6580               	cpfsgt	petFun@i& (0+255),b
  3064  0017FA  EF01  F00C         	goto	u2461
  3065  0017FE  EF03  F00C         	goto	u2460
  3066  001802                     u2461:
  3067  001802  EFF0  F00B         	goto	l2692
  3068  001806                     u2460:
  3069  001806                     
  3070                           ; BSR set to: 1
  3071                           ;main.c: 382:     lcdCommand(0xC0 + 6);
  3072  001806  0EC6               	movlw	198
  3073  001808  ECBC  F010         	call	_lcdCommand
  3074                           
  3075                           ;main.c: 383:     lcdData(0);
  3076  00180C  0E00               	movlw	0
  3077  00180E  EC09  F012         	call	_lcdData
  3078                           
  3079                           ;main.c: 384:     lcdData(1);
  3080  001812  0E01               	movlw	1
  3081  001814  EC09  F012         	call	_lcdData
  3082                           
  3083                           ;main.c: 385:     lcdData(2);
  3084  001818  0E02               	movlw	2
  3085  00181A  EC09  F012         	call	_lcdData
  3086                           
  3087                           ;main.c: 386:     lcdData(3);
  3088  00181E  0E03               	movlw	3
  3089  001820  EC09  F012         	call	_lcdData
  3090                           
  3091                           ;main.c: 387:     lcdCommand(0x90 + 6);
  3092  001824  0E96               	movlw	150
  3093  001826  ECBC  F010         	call	_lcdCommand
  3094                           
  3095                           ;main.c: 388:     lcdData(4);
  3096  00182A  0E04               	movlw	4
  3097  00182C  EC09  F012         	call	_lcdData
  3098                           
  3099                           ;main.c: 389:     lcdData(5);
  3100  001830  0E05               	movlw	5
  3101  001832  EC09  F012         	call	_lcdData
  3102                           
  3103                           ;main.c: 390:     lcdData(6);
  3104  001836  0E06               	movlw	6
  3105  001838  EC09  F012         	call	_lcdData
  3106                           
  3107                           ;main.c: 391:     lcdData(7);
  3108  00183C  0E07               	movlw	7
  3109  00183E  EC09  F012         	call	_lcdData
  3110                           
  3111                           ;main.c: 393:     atraso_ms(1500);
  3112  001842  0E05               	movlw	5
  3113  001844  6E02               	movwf	(atraso_ms@valor+1)^0,c
  3114  001846  0EDC               	movlw	220
  3115  001848  6E01               	movwf	atraso_ms@valor^0,c
  3116  00184A  ECA7  F011         	call	_atraso_ms	;wreg free
  3117                           
  3118                           ;main.c: 394:     lcdCommand(0x40);
  3119  00184E  0E40               	movlw	64
  3120  001850  ECBC  F010         	call	_lcdCommand
  3121  001854                     
  3122                           ;main.c: 396:     for (i = 0; i < 64; i++) {
  3123  001854  0E00               	movlw	0
  3124  001856  0101               	movlb	1	; () banked
  3125  001858  6F80               	movwf	petFun@i& (0+255),b
  3126  00185A                     l2706:
  3127                           
  3128                           ; BSR set to: 1
  3129                           ;main.c: 397:         lcdData(pet_fun2[i]);
  3130  00185A  0E40               	movlw	low petFun@pet_fun2
  3131  00185C  2580               	addwf	petFun@i& (0+255),w,b
  3132  00185E  6ED9               	movwf	fsr2l,c
  3133  001860  6ADA               	clrf	fsr2h,c
  3134  001862  0E01               	movlw	high petFun@pet_fun2
  3135  001864  22DA               	addwfc	fsr2h,f,c
  3136  001866  50DF               	movf	indf2,w,c
  3137  001868  EC09  F012         	call	_lcdData
  3138  00186C                     
  3139                           ;main.c: 398:     }
  3140  00186C  0101               	movlb	1	; () banked
  3141  00186E  2B80               	incf	petFun@i& (0+255),f,b
  3142  001870                     
  3143                           ; BSR set to: 1
  3144  001870  0E3F               	movlw	63
  3145  001872  6580               	cpfsgt	petFun@i& (0+255),b
  3146  001874  EF3E  F00C         	goto	u2471
  3147  001878  EF40  F00C         	goto	u2470
  3148  00187C                     u2471:
  3149  00187C  EF2D  F00C         	goto	l2706
  3150  001880                     u2470:
  3151  001880                     
  3152                           ; BSR set to: 1
  3153                           ;main.c: 399:     lcdCommand(0xC0 + 6);
  3154  001880  0EC6               	movlw	198
  3155  001882  ECBC  F010         	call	_lcdCommand
  3156                           
  3157                           ;main.c: 400:     lcdData(0);
  3158  001886  0E00               	movlw	0
  3159  001888  EC09  F012         	call	_lcdData
  3160                           
  3161                           ;main.c: 401:     lcdData(1);
  3162  00188C  0E01               	movlw	1
  3163  00188E  EC09  F012         	call	_lcdData
  3164                           
  3165                           ;main.c: 402:     lcdData(2);
  3166  001892  0E02               	movlw	2
  3167  001894  EC09  F012         	call	_lcdData
  3168                           
  3169                           ;main.c: 403:     lcdData(3);
  3170  001898  0E03               	movlw	3
  3171  00189A  EC09  F012         	call	_lcdData
  3172                           
  3173                           ;main.c: 404:     lcdCommand(0x90 + 6);
  3174  00189E  0E96               	movlw	150
  3175  0018A0  ECBC  F010         	call	_lcdCommand
  3176                           
  3177                           ;main.c: 405:     lcdData(4);
  3178  0018A4  0E04               	movlw	4
  3179  0018A6  EC09  F012         	call	_lcdData
  3180                           
  3181                           ;main.c: 406:     lcdData(5);
  3182  0018AA  0E05               	movlw	5
  3183  0018AC  EC09  F012         	call	_lcdData
  3184                           
  3185                           ;main.c: 407:     lcdData(6);
  3186  0018B0  0E06               	movlw	6
  3187  0018B2  EC09  F012         	call	_lcdData
  3188                           
  3189                           ;main.c: 408:     lcdData(7);
  3190  0018B6  0E07               	movlw	7
  3191  0018B8  EC09  F012         	call	_lcdData
  3192                           
  3193                           ;main.c: 410:     atraso_ms(2000);
  3194  0018BC  0E07               	movlw	7
  3195  0018BE  6E02               	movwf	(atraso_ms@valor+1)^0,c
  3196  0018C0  0ED0               	movlw	208
  3197  0018C2  6E01               	movwf	atraso_ms@valor^0,c
  3198  0018C4  ECA7  F011         	call	_atraso_ms	;wreg free
  3199                           
  3200                           ;main.c: 411:     lcdCommand(0x01);
  3201  0018C8  0E01               	movlw	1
  3202  0018CA  ECBC  F010         	call	_lcdCommand
  3203  0018CE                     
  3204                           ;main.c: 413:     for (i = 0; i < 2; i++) {
  3205  0018CE  0E00               	movlw	0
  3206  0018D0  0101               	movlb	1	; () banked
  3207  0018D2  6F80               	movwf	petFun@i& (0+255),b
  3208  0018D4                     l2720:
  3209                           
  3210                           ; BSR set to: 1
  3211                           ;main.c: 414:         PORTB ^= 0xFF;
  3212  0018D4  0EFF               	movlw	255
  3213  0018D6  1A81               	xorwf	129,f,c	;volatile
  3214                           
  3215                           ;main.c: 415:         PORTD ^= 0xFF;
  3216  0018D8  0EFF               	movlw	255
  3217  0018DA  1A83               	xorwf	131,f,c	;volatile
  3218  0018DC                     
  3219                           ; BSR set to: 1
  3220                           ;main.c: 416:         atraso_ms(200);
  3221  0018DC  0E00               	movlw	0
  3222  0018DE  6E02               	movwf	(atraso_ms@valor+1)^0,c
  3223  0018E0  0EC8               	movlw	200
  3224  0018E2  6E01               	movwf	atraso_ms@valor^0,c
  3225  0018E4  ECA7  F011         	call	_atraso_ms	;wreg free
  3226  0018E8                     
  3227                           ;main.c: 417:     }
  3228  0018E8  0101               	movlb	1	; () banked
  3229  0018EA  2B80               	incf	petFun@i& (0+255),f,b
  3230  0018EC                     
  3231                           ; BSR set to: 1
  3232  0018EC  0E01               	movlw	1
  3233  0018EE  6580               	cpfsgt	petFun@i& (0+255),b
  3234  0018F0  EF7C  F00C         	goto	u2481
  3235  0018F4  EF7E  F00C         	goto	u2480
  3236  0018F8                     u2481:
  3237  0018F8  EF6A  F00C         	goto	l2720
  3238  0018FC                     u2480:
  3239  0018FC                     
  3240                           ; BSR set to: 1
  3241                           ;main.c: 418:     pwmSet(0);
  3242  0018FC  0E00               	movlw	0
  3243  0018FE  EC71  F011         	call	_pwmSet
  3244  001902  0012               	return		;funcret
  3245  001904                     __end_of_petFun:
  3246                           	callstack 0
  3247                           
  3248 ;; *************** function _petFome *****************
  3249 ;; Defined at:
  3250 ;;		line 422 in file "main.c"
  3251 ;; Parameters:    Size  Location     Type
  3252 ;;		None
  3253 ;; Auto vars:     Size  Location     Type
  3254 ;;  pet_fome2      48   60[COMRAM] unsigned char [48]
  3255 ;;  pet_fome1      48   12[COMRAM] unsigned char [48]
  3256 ;;  i               1  108[COMRAM] unsigned char 
  3257 ;; Return value:  Size  Location     Type
  3258 ;;                  1    wreg      void 
  3259 ;; Registers used:
  3260 ;;		wreg, fsr1l, fsr1h, fsr2l, fsr2h, status,2, status,0, prodl, prodh, cstack
  3261 ;; Tracked objects:
  3262 ;;		On entry : 0/0
  3263 ;;		On exit  : 0/0
  3264 ;;		Unchanged: 0/0
  3265 ;; Data sizes:     COMRAM   BANK0   BANK1   BANK2   BANK3   BANK4   BANK5
  3266 ;;      Params:         0       0       0       0       0       0       0
  3267 ;;      Locals:        97       0       0       0       0       0       0
  3268 ;;      Temps:          0       0       0       0       0       0       0
  3269 ;;      Totals:        97       0       0       0       0       0       0
  3270 ;;Total ram usage:       97 bytes
  3271 ;; Hardware stack levels used: 1
  3272 ;; Hardware stack levels required when called: 3
  3273 ;; This function calls:
  3274 ;;		_atraso_ms
  3275 ;;		_lcdCommand
  3276 ;;		_lcdData
  3277 ;;		_pwmSet
  3278 ;; This function is called by:
  3279 ;;		_main
  3280 ;; This function uses a non-reentrant model
  3281 ;;
  3282                           
  3283                           	psect	text9
  3284  001904                     __ptext9:
  3285                           	callstack 0
  3286  001904                     _petFome:
  3287                           	callstack 27
  3288  001904                     
  3289                           ;main.c: 423:     unsigned char i;;main.c: 425:     unsigned char pet_fome1[48] = {0b000
      +                          00, 0b00000, 0b00000, 0b00001, 0b00011, 0b00110, 0b01100, 0b01100,
  3290  001904  EE22  F090         	lfsr	2,petFome@F2442
  3291  001908  EE10  F00D         	lfsr	1,petFome@pet_fome1
  3292  00190C  0E2F               	movlw	47
  3293  00190E                     u2491:
  3294  00190E  CFDB FFE3          	movff	plusw2,plusw1
  3295  001912  06E8               	decf	wreg,f,c
  3296  001914  E2FC               	bc	u2491
  3297                           
  3298                           ;main.c: 432:     unsigned char pet_fome2[48] = {0b00000, 0b00000, 0b00000, 0b00001, 0b0
      +                          0011, 0b00110, 0b01100, 0b01100,
  3299  001916  EE22  F060         	lfsr	2,petFome@F2444
  3300  00191A  EE10  F03D         	lfsr	1,petFome@pet_fome2
  3301  00191E  0E2F               	movlw	47
  3302  001920                     u2501:
  3303  001920  CFDB FFE3          	movff	plusw2,plusw1
  3304  001924  06E8               	decf	wreg,f,c
  3305  001926  E2FC               	bc	u2501
  3306  001928                     
  3307                           ;main.c: 439:     pwmSet(50);
  3308  001928  0E32               	movlw	50
  3309  00192A  EC71  F011         	call	_pwmSet
  3310  00192E                     
  3311                           ;main.c: 441:     lcdCommand(0x01);
  3312  00192E  0E01               	movlw	1
  3313  001930  ECBC  F010         	call	_lcdCommand
  3314  001934                     
  3315                           ;main.c: 442:     lcdCommand(0x40);
  3316  001934  0E40               	movlw	64
  3317  001936  ECBC  F010         	call	_lcdCommand
  3318  00193A                     
  3319                           ;main.c: 444:     for (i = 0; i < 48; i++) {
  3320  00193A  0E00               	movlw	0
  3321  00193C  6E6D               	movwf	petFome@i^0,c
  3322  00193E                     l2744:
  3323                           
  3324                           ;main.c: 445:         lcdData(pet_fome1[i]);
  3325  00193E  0E0D               	movlw	low petFome@pet_fome1
  3326  001940  246D               	addwf	petFome@i^0,w,c
  3327  001942  6ED9               	movwf	fsr2l,c
  3328  001944  6ADA               	clrf	fsr2h,c
  3329  001946  0E00               	movlw	high petFome@pet_fome1
  3330  001948  22DA               	addwfc	fsr2h,f,c
  3331  00194A  50DF               	movf	indf2,w,c
  3332  00194C  EC09  F012         	call	_lcdData
  3333  001950                     
  3334                           ;main.c: 446:     }
  3335  001950  2A6D               	incf	petFome@i^0,f,c
  3336  001952  0E2F               	movlw	47
  3337  001954  646D               	cpfsgt	petFome@i^0,c
  3338  001956  EFAF  F00C         	goto	u2511
  3339  00195A  EFB1  F00C         	goto	u2510
  3340  00195E                     u2511:
  3341  00195E  EF9F  F00C         	goto	l2744
  3342  001962                     u2510:
  3343  001962                     
  3344                           ;main.c: 447:     lcdCommand(0xC0 + 6);
  3345  001962  0EC6               	movlw	198
  3346  001964  ECBC  F010         	call	_lcdCommand
  3347                           
  3348                           ;main.c: 448:     lcdData(0);
  3349  001968  0E00               	movlw	0
  3350  00196A  EC09  F012         	call	_lcdData
  3351                           
  3352                           ;main.c: 449:     lcdData(1);
  3353  00196E  0E01               	movlw	1
  3354  001970  EC09  F012         	call	_lcdData
  3355                           
  3356                           ;main.c: 450:     lcdData(2);
  3357  001974  0E02               	movlw	2
  3358  001976  EC09  F012         	call	_lcdData
  3359                           
  3360                           ;main.c: 451:     lcdCommand(0x90 + 6);
  3361  00197A  0E96               	movlw	150
  3362  00197C  ECBC  F010         	call	_lcdCommand
  3363                           
  3364                           ;main.c: 452:     lcdData(3);
  3365  001980  0E03               	movlw	3
  3366  001982  EC09  F012         	call	_lcdData
  3367                           
  3368                           ;main.c: 453:     lcdData(4);
  3369  001986  0E04               	movlw	4
  3370  001988  EC09  F012         	call	_lcdData
  3371                           
  3372                           ;main.c: 454:     lcdData(5);
  3373  00198C  0E05               	movlw	5
  3374  00198E  EC09  F012         	call	_lcdData
  3375                           
  3376                           ;main.c: 456:     atraso_ms(1500);
  3377  001992  0E05               	movlw	5
  3378  001994  6E02               	movwf	(atraso_ms@valor+1)^0,c
  3379  001996  0EDC               	movlw	220
  3380  001998  6E01               	movwf	atraso_ms@valor^0,c
  3381  00199A  ECA7  F011         	call	_atraso_ms	;wreg free
  3382                           
  3383                           ;main.c: 457:     lcdCommand(0x40);
  3384  00199E  0E40               	movlw	64
  3385  0019A0  ECBC  F010         	call	_lcdCommand
  3386  0019A4                     
  3387                           ;main.c: 459:     for (i = 0; i < 48; i++) {
  3388  0019A4  0E00               	movlw	0
  3389  0019A6  6E6D               	movwf	petFome@i^0,c
  3390  0019A8                     l2758:
  3391                           
  3392                           ;main.c: 460:         lcdData(pet_fome2[i]);
  3393  0019A8  0E3D               	movlw	low petFome@pet_fome2
  3394  0019AA  246D               	addwf	petFome@i^0,w,c
  3395  0019AC  6ED9               	movwf	fsr2l,c
  3396  0019AE  6ADA               	clrf	fsr2h,c
  3397  0019B0  0E00               	movlw	high petFome@pet_fome2
  3398  0019B2  22DA               	addwfc	fsr2h,f,c
  3399  0019B4  50DF               	movf	indf2,w,c
  3400  0019B6  EC09  F012         	call	_lcdData
  3401  0019BA                     
  3402                           ;main.c: 461:     }
  3403  0019BA  2A6D               	incf	petFome@i^0,f,c
  3404  0019BC  0E2F               	movlw	47
  3405  0019BE  646D               	cpfsgt	petFome@i^0,c
  3406  0019C0  EFE4  F00C         	goto	u2521
  3407  0019C4  EFE6  F00C         	goto	u2520
  3408  0019C8                     u2521:
  3409  0019C8  EFD4  F00C         	goto	l2758
  3410  0019CC                     u2520:
  3411  0019CC                     
  3412                           ;main.c: 462:     lcdCommand(0xC0 + 6);
  3413  0019CC  0EC6               	movlw	198
  3414  0019CE  ECBC  F010         	call	_lcdCommand
  3415                           
  3416                           ;main.c: 463:     lcdData(0);
  3417  0019D2  0E00               	movlw	0
  3418  0019D4  EC09  F012         	call	_lcdData
  3419                           
  3420                           ;main.c: 464:     lcdData(1);
  3421  0019D8  0E01               	movlw	1
  3422  0019DA  EC09  F012         	call	_lcdData
  3423                           
  3424                           ;main.c: 465:     lcdData(2);
  3425  0019DE  0E02               	movlw	2
  3426  0019E0  EC09  F012         	call	_lcdData
  3427                           
  3428                           ;main.c: 466:     lcdCommand(0x90 + 6);
  3429  0019E4  0E96               	movlw	150
  3430  0019E6  ECBC  F010         	call	_lcdCommand
  3431                           
  3432                           ;main.c: 467:     lcdData(3);
  3433  0019EA  0E03               	movlw	3
  3434  0019EC  EC09  F012         	call	_lcdData
  3435                           
  3436                           ;main.c: 468:     lcdData(4);
  3437  0019F0  0E04               	movlw	4
  3438  0019F2  EC09  F012         	call	_lcdData
  3439                           
  3440                           ;main.c: 469:     lcdData(5);
  3441  0019F6  0E05               	movlw	5
  3442  0019F8  EC09  F012         	call	_lcdData
  3443                           
  3444                           ;main.c: 471:     atraso_ms(2000);
  3445  0019FC  0E07               	movlw	7
  3446  0019FE  6E02               	movwf	(atraso_ms@valor+1)^0,c
  3447  001A00  0ED0               	movlw	208
  3448  001A02  6E01               	movwf	atraso_ms@valor^0,c
  3449  001A04  ECA7  F011         	call	_atraso_ms	;wreg free
  3450                           
  3451                           ;main.c: 472:     lcdCommand(0x01);
  3452  001A08  0E01               	movlw	1
  3453  001A0A  ECBC  F010         	call	_lcdCommand
  3454  001A0E                     
  3455                           ;main.c: 474:     for (i = 0; i < 2; i++) {
  3456  001A0E  0E00               	movlw	0
  3457  001A10  6E6D               	movwf	petFome@i^0,c
  3458  001A12                     l2772:
  3459                           
  3460                           ;main.c: 475:         PORTB ^= 0xFF;
  3461  001A12  0EFF               	movlw	255
  3462  001A14  1A81               	xorwf	129,f,c	;volatile
  3463                           
  3464                           ;main.c: 476:         PORTD ^= 0xFF;
  3465  001A16  0EFF               	movlw	255
  3466  001A18  1A83               	xorwf	131,f,c	;volatile
  3467  001A1A                     
  3468                           ;main.c: 477:         atraso_ms(200);
  3469  001A1A  0E00               	movlw	0
  3470  001A1C  6E02               	movwf	(atraso_ms@valor+1)^0,c
  3471  001A1E  0EC8               	movlw	200
  3472  001A20  6E01               	movwf	atraso_ms@valor^0,c
  3473  001A22  ECA7  F011         	call	_atraso_ms	;wreg free
  3474  001A26                     
  3475                           ;main.c: 478:     }
  3476  001A26  2A6D               	incf	petFome@i^0,f,c
  3477  001A28  0E01               	movlw	1
  3478  001A2A  646D               	cpfsgt	petFome@i^0,c
  3479  001A2C  EF1A  F00D         	goto	u2531
  3480  001A30  EF1C  F00D         	goto	u2530
  3481  001A34                     u2531:
  3482  001A34  EF09  F00D         	goto	l2772
  3483  001A38                     u2530:
  3484  001A38                     
  3485                           ;main.c: 479:     pwmSet(0);
  3486  001A38  0E00               	movlw	0
  3487  001A3A  EC71  F011         	call	_pwmSet
  3488  001A3E  0012               	return		;funcret
  3489  001A40                     __end_of_petFome:
  3490                           	callstack 0
  3491                           
  3492 ;; *************** function _pwmSet *****************
  3493 ;; Defined at:
  3494 ;;		line 24 in file "pwm.c"
  3495 ;; Parameters:    Size  Location     Type
  3496 ;;  porcento        1    wreg     unsigned char 
  3497 ;; Auto vars:     Size  Location     Type
  3498 ;;  porcento        1    9[COMRAM] unsigned char 
  3499 ;;  val             2   10[COMRAM] unsigned int 
  3500 ;; Return value:  Size  Location     Type
  3501 ;;                  1    wreg      void 
  3502 ;; Registers used:
  3503 ;;		wreg, status,2, status,0, prodl, prodh, cstack
  3504 ;; Tracked objects:
  3505 ;;		On entry : 0/0
  3506 ;;		On exit  : 0/0
  3507 ;;		Unchanged: 0/0
  3508 ;; Data sizes:     COMRAM   BANK0   BANK1   BANK2   BANK3   BANK4   BANK5
  3509 ;;      Params:         0       0       0       0       0       0       0
  3510 ;;      Locals:         3       0       0       0       0       0       0
  3511 ;;      Temps:          2       0       0       0       0       0       0
  3512 ;;      Totals:         5       0       0       0       0       0       0
  3513 ;;Total ram usage:        5 bytes
  3514 ;; Hardware stack levels used: 1
  3515 ;; Hardware stack levels required when called: 1
  3516 ;; This function calls:
  3517 ;;		___lwdiv
  3518 ;;		___wmul
  3519 ;; This function is called by:
  3520 ;;		_petFun
  3521 ;;		_petFome
  3522 ;; This function uses a non-reentrant model
  3523 ;;
  3524                           
  3525                           	psect	text10
  3526  0022E2                     __ptext10:
  3527                           	callstack 0
  3528  0022E2                     _pwmSet:
  3529                           	callstack 28
  3530                           
  3531                           ;incstack = 0
  3532                           ;pwmSet@porcento stored from wreg
  3533  0022E2  6E0A               	movwf	pwmSet@porcento^0,c
  3534  0022E4                     
  3535                           ;pwm.c: 24: void pwmSet(unsigned char porcento);pwm.c: 25: {;pwm.c: 31:  unsigned int va
      +                          l = ((unsigned int)porcento) *(PR2+1);
  3536  0022E4  0E01               	movlw	1
  3537  0022E6  24CB               	addwf	203,w,c	;volatile
  3538  0022E8  6E01               	movwf	___wmul@multiplier^0,c
  3539  0022EA  6A02               	clrf	(___wmul@multiplier+1)^0,c
  3540  0022EC  0E00               	movlw	0
  3541  0022EE  2202               	addwfc	(___wmul@multiplier+1)^0,f,c
  3542  0022F0  C00A  F003         	movff	pwmSet@porcento,___wmul@multiplicand
  3543  0022F4  6A04               	clrf	(___wmul@multiplicand+1)^0,c
  3544  0022F6  EC84  F012         	call	___wmul	;wreg free
  3545  0022FA  C001  F00B         	movff	?___wmul,pwmSet@val
  3546  0022FE  C002  F00C         	movff	?___wmul+1,pwmSet@val+1
  3547  002302                     
  3548                           ;pwm.c: 33:     val = val / 25;
  3549  002302  C00B  F001         	movff	pwmSet@val,___lwdiv@dividend
  3550  002306  C00C  F002         	movff	pwmSet@val+1,___lwdiv@dividend+1
  3551  00230A  0E00               	movlw	0
  3552  00230C  6E04               	movwf	(___lwdiv@divisor+1)^0,c
  3553  00230E  0E19               	movlw	25
  3554  002310  6E03               	movwf	___lwdiv@divisor^0,c
  3555  002312  EC37  F011         	call	___lwdiv	;wreg free
  3556  002316  C001  F00B         	movff	?___lwdiv,pwmSet@val
  3557  00231A  C002  F00C         	movff	?___lwdiv+1,pwmSet@val+1
  3558  00231E                     
  3559                           ;pwm.c: 35:  val &= 0x03ff;
  3560  00231E  0EFF               	movlw	255
  3561  002320  160B               	andwf	pwmSet@val^0,f,c
  3562  002322  0E03               	movlw	3
  3563  002324  160C               	andwf	(pwmSet@val+1)^0,f,c
  3564  002326                     
  3565                           ;pwm.c: 37:  CCPR1L = val >> 2;
  3566  002326  C00B  F008         	movff	pwmSet@val,??_pwmSet
  3567  00232A  C00C  F009         	movff	pwmSet@val+1,??_pwmSet+1
  3568  00232E  90D8               	bcf	status,0,c
  3569  002330  3209               	rrcf	(??_pwmSet+1)^0,f,c
  3570  002332  3208               	rrcf	??_pwmSet^0,f,c
  3571  002334  90D8               	bcf	status,0,c
  3572  002336  3209               	rrcf	(??_pwmSet+1)^0,f,c
  3573  002338  3208               	rrcf	??_pwmSet^0,f,c
  3574  00233A  5008               	movf	??_pwmSet^0,w,c
  3575  00233C  6EBE               	movwf	190,c	;volatile
  3576  00233E                     
  3577                           ;pwm.c: 39:  CCP1CON |= (val & 0x0003) << 4;
  3578  00233E  C00B  F008         	movff	pwmSet@val,??_pwmSet	;volatile
  3579  002342  0E03               	movlw	3
  3580  002344  1608               	andwf	??_pwmSet^0,f,c
  3581  002346  3808               	swapf	??_pwmSet^0,w,c
  3582  002348  0BF0               	andlw	240
  3583  00234A  12BD               	iorwf	189,f,c	;volatile
  3584  00234C  0012               	return		;funcret
  3585  00234E                     __end_of_pwmSet:
  3586                           	callstack 0
  3587                           
  3588 ;; *************** function ___wmul *****************
  3589 ;; Defined at:
  3590 ;;		line 15 in file "D:\MPLAB X IDE\XC8\pic\sources\c99\common\Umul16.c"
  3591 ;; Parameters:    Size  Location     Type
  3592 ;;  multiplier      2    0[COMRAM] unsigned int 
  3593 ;;  multiplicand    2    2[COMRAM] unsigned int 
  3594 ;; Auto vars:     Size  Location     Type
  3595 ;;  product         2    4[COMRAM] unsigned int 
  3596 ;; Return value:  Size  Location     Type
  3597 ;;                  2    0[COMRAM] unsigned int 
  3598 ;; Registers used:
  3599 ;;		wreg, status,2, status,0, prodl, prodh
  3600 ;; Tracked objects:
  3601 ;;		On entry : 0/0
  3602 ;;		On exit  : 0/0
  3603 ;;		Unchanged: 0/0
  3604 ;; Data sizes:     COMRAM   BANK0   BANK1   BANK2   BANK3   BANK4   BANK5
  3605 ;;      Params:         4       0       0       0       0       0       0
  3606 ;;      Locals:         2       0       0       0       0       0       0
  3607 ;;      Temps:          0       0       0       0       0       0       0
  3608 ;;      Totals:         6       0       0       0       0       0       0
  3609 ;;Total ram usage:        6 bytes
  3610 ;; Hardware stack levels used: 1
  3611 ;; This function calls:
  3612 ;;		Nothing
  3613 ;; This function is called by:
  3614 ;;		_pwmSet
  3615 ;; This function uses a non-reentrant model
  3616 ;;
  3617                           
  3618                           	psect	text11
  3619  002508                     __ptext11:
  3620                           	callstack 0
  3621  002508                     ___wmul:
  3622                           	callstack 28
  3623  002508  5001               	movf	___wmul@multiplier^0,w,c
  3624  00250A  0203               	mulwf	___wmul@multiplicand^0,c
  3625  00250C  CFF3 F005          	movff	prodl,___wmul@product
  3626  002510  CFF4 F006          	movff	prodh,___wmul@product+1
  3627  002514  5001               	movf	___wmul@multiplier^0,w,c
  3628  002516  0204               	mulwf	(___wmul@multiplicand+1)^0,c
  3629  002518  50F3               	movf	243,w,c
  3630  00251A  2606               	addwf	(___wmul@product+1)^0,f,c
  3631  00251C  5002               	movf	(___wmul@multiplier+1)^0,w,c
  3632  00251E  0203               	mulwf	___wmul@multiplicand^0,c
  3633  002520  50F3               	movf	243,w,c
  3634  002522  2606               	addwf	(___wmul@product+1)^0,f,c
  3635  002524  C005  F001         	movff	___wmul@product,?___wmul
  3636  002528  C006  F002         	movff	___wmul@product+1,?___wmul+1
  3637  00252C  0012               	return		;funcret
  3638  00252E                     __end_of___wmul:
  3639                           	callstack 0
  3640                           
  3641 ;; *************** function ___lwdiv *****************
  3642 ;; Defined at:
  3643 ;;		line 7 in file "D:\MPLAB X IDE\XC8\pic\sources\c99\common\lwdiv.c"
  3644 ;; Parameters:    Size  Location     Type
  3645 ;;  dividend        2    0[COMRAM] unsigned int 
  3646 ;;  divisor         2    2[COMRAM] unsigned int 
  3647 ;; Auto vars:     Size  Location     Type
  3648 ;;  quotient        2    4[COMRAM] unsigned int 
  3649 ;;  counter         1    6[COMRAM] unsigned char 
  3650 ;; Return value:  Size  Location     Type
  3651 ;;                  2    0[COMRAM] unsigned int 
  3652 ;; Registers used:
  3653 ;;		wreg, status,2, status,0
  3654 ;; Tracked objects:
  3655 ;;		On entry : 0/0
  3656 ;;		On exit  : 0/0
  3657 ;;		Unchanged: 0/0
  3658 ;; Data sizes:     COMRAM   BANK0   BANK1   BANK2   BANK3   BANK4   BANK5
  3659 ;;      Params:         4       0       0       0       0       0       0
  3660 ;;      Locals:         3       0       0       0       0       0       0
  3661 ;;      Temps:          0       0       0       0       0       0       0
  3662 ;;      Totals:         7       0       0       0       0       0       0
  3663 ;;Total ram usage:        7 bytes
  3664 ;; Hardware stack levels used: 1
  3665 ;; This function calls:
  3666 ;;		Nothing
  3667 ;; This function is called by:
  3668 ;;		_pwmSet
  3669 ;; This function uses a non-reentrant model
  3670 ;;
  3671                           
  3672                           	psect	text12
  3673  00226E                     __ptext12:
  3674                           	callstack 0
  3675  00226E                     ___lwdiv:
  3676                           	callstack 28
  3677  00226E  0E00               	movlw	0
  3678  002270  6E06               	movwf	(___lwdiv@quotient+1)^0,c
  3679  002272  0E00               	movlw	0
  3680  002274  6E05               	movwf	___lwdiv@quotient^0,c
  3681  002276  5003               	movf	___lwdiv@divisor^0,w,c
  3682  002278  1004               	iorwf	(___lwdiv@divisor+1)^0,w,c
  3683  00227A  B4D8               	btfsc	status,2,c
  3684  00227C  EF42  F011         	goto	u1941
  3685  002280  EF44  F011         	goto	u1940
  3686  002284                     u1941:
  3687  002284  EF6C  F011         	goto	l862
  3688  002288                     u1940:
  3689  002288  0E01               	movlw	1
  3690  00228A  6E07               	movwf	___lwdiv@counter^0,c
  3691  00228C  EF4C  F011         	goto	l2350
  3692  002290                     l2348:
  3693  002290  90D8               	bcf	status,0,c
  3694  002292  3603               	rlcf	___lwdiv@divisor^0,f,c
  3695  002294  3604               	rlcf	(___lwdiv@divisor+1)^0,f,c
  3696  002296  2A07               	incf	___lwdiv@counter^0,f,c
  3697  002298                     l2350:
  3698  002298  AE04               	btfss	(___lwdiv@divisor+1)^0,7,c
  3699  00229A  EF51  F011         	goto	u1951
  3700  00229E  EF53  F011         	goto	u1950
  3701  0022A2                     u1951:
  3702  0022A2  EF48  F011         	goto	l2348
  3703  0022A6                     u1950:
  3704  0022A6                     l2352:
  3705  0022A6  90D8               	bcf	status,0,c
  3706  0022A8  3605               	rlcf	___lwdiv@quotient^0,f,c
  3707  0022AA  3606               	rlcf	(___lwdiv@quotient+1)^0,f,c
  3708  0022AC  5003               	movf	___lwdiv@divisor^0,w,c
  3709  0022AE  5C01               	subwf	___lwdiv@dividend^0,w,c
  3710  0022B0  5004               	movf	(___lwdiv@divisor+1)^0,w,c
  3711  0022B2  5802               	subwfb	(___lwdiv@dividend+1)^0,w,c
  3712  0022B4  A0D8               	btfss	status,0,c
  3713  0022B6  EF5F  F011         	goto	u1961
  3714  0022BA  EF61  F011         	goto	u1960
  3715  0022BE                     u1961:
  3716  0022BE  EF66  F011         	goto	l2360
  3717  0022C2                     u1960:
  3718  0022C2  5003               	movf	___lwdiv@divisor^0,w,c
  3719  0022C4  5E01               	subwf	___lwdiv@dividend^0,f,c
  3720  0022C6  5004               	movf	(___lwdiv@divisor+1)^0,w,c
  3721  0022C8  5A02               	subwfb	(___lwdiv@dividend+1)^0,f,c
  3722  0022CA  8005               	bsf	___lwdiv@quotient^0,0,c
  3723  0022CC                     l2360:
  3724  0022CC  90D8               	bcf	status,0,c
  3725  0022CE  3204               	rrcf	(___lwdiv@divisor+1)^0,f,c
  3726  0022D0  3203               	rrcf	___lwdiv@divisor^0,f,c
  3727  0022D2  2E07               	decfsz	___lwdiv@counter^0,f,c
  3728  0022D4  EF53  F011         	goto	l2352
  3729  0022D8                     l862:
  3730  0022D8  C005  F001         	movff	___lwdiv@quotient,?___lwdiv
  3731  0022DC  C006  F002         	movff	___lwdiv@quotient+1,?___lwdiv+1
  3732  0022E0  0012               	return		;funcret
  3733  0022E2                     __end_of___lwdiv:
  3734                           	callstack 0
  3735                           
  3736 ;; *************** function _lcdData *****************
  3737 ;; Defined at:
  3738 ;;		line 74 in file "lcd.c"
  3739 ;; Parameters:    Size  Location     Type
  3740 ;;  valor           1    wreg     unsigned char 
  3741 ;; Auto vars:     Size  Location     Type
  3742 ;;  valor           1    6[COMRAM] unsigned char 
  3743 ;;  old_D           1    7[COMRAM] unsigned char 
  3744 ;; Return value:  Size  Location     Type
  3745 ;;                  1    wreg      void 
  3746 ;; Registers used:
  3747 ;;		wreg, status,2, status,0, cstack
  3748 ;; Tracked objects:
  3749 ;;		On entry : 0/0
  3750 ;;		On exit  : 0/0
  3751 ;;		Unchanged: 0/0
  3752 ;; Data sizes:     COMRAM   BANK0   BANK1   BANK2   BANK3   BANK4   BANK5
  3753 ;;      Params:         0       0       0       0       0       0       0
  3754 ;;      Locals:         2       0       0       0       0       0       0
  3755 ;;      Temps:          0       0       0       0       0       0       0
  3756 ;;      Totals:         2       0       0       0       0       0       0
  3757 ;;Total ram usage:        2 bytes
  3758 ;; Hardware stack levels used: 1
  3759 ;; Hardware stack levels required when called: 1
  3760 ;; This function calls:
  3761 ;;		_Delay40us
  3762 ;;		_digitalWrite
  3763 ;; This function is called by:
  3764 ;;		_petInicio
  3765 ;;		_petNao
  3766 ;;		_petFun
  3767 ;;		_petFome
  3768 ;;		_imprime
  3769 ;;		_petX
  3770 ;;		_main
  3771 ;; This function uses a non-reentrant model
  3772 ;;
  3773                           
  3774                           	psect	text13
  3775  002412                     __ptext13:
  3776                           	callstack 0
  3777  002412                     _lcdData:
  3778                           	callstack 28
  3779                           
  3780                           ;incstack = 0
  3781                           ;lcdData@valor stored from wreg
  3782  002412  6E07               	movwf	lcdData@valor^0,c
  3783  002414                     
  3784                           ;lcd.c: 74: void lcdData(unsigned char valor);lcd.c: 75: {;lcd.c: 77:     unsigned char 
      +                          old_D;;lcd.c: 78:     old_D = PORTD;
  3785  002414  CF83 F008          	movff	3971,lcdData@old_D	;volatile
  3786  002418                     
  3787                           ;lcd.c: 80:     TRISD = 0x00;
  3788  002418  0E00               	movlw	0
  3789  00241A  6E95               	movwf	149,c	;volatile
  3790  00241C                     
  3791                           ;lcd.c: 81:  digitalWrite(PIN_E2, 1);
  3792  00241C  0E00               	movlw	0
  3793  00241E  6E02               	movwf	(digitalWrite@pin+1)^0,c
  3794  002420  0E22               	movlw	34
  3795  002422  6E01               	movwf	digitalWrite@pin^0,c
  3796  002424  0E00               	movlw	0
  3797  002426  6E04               	movwf	(digitalWrite@value+1)^0,c
  3798  002428  0E01               	movlw	1
  3799  00242A  6E03               	movwf	digitalWrite@value^0,c
  3800  00242C  EC15  F008         	call	_digitalWrite	;wreg free
  3801  002430                     
  3802                           ;lcd.c: 83:  PORTD = valor;
  3803  002430  C007  FF83         	movff	lcdData@valor,3971	;volatile
  3804  002434                     
  3805                           ;lcd.c: 85:     digitalWrite(PIN_E1, 1);
  3806  002434  0E00               	movlw	0
  3807  002436  6E02               	movwf	(digitalWrite@pin+1)^0,c
  3808  002438  0E21               	movlw	33
  3809  00243A  6E01               	movwf	digitalWrite@pin^0,c
  3810  00243C  0E00               	movlw	0
  3811  00243E  6E04               	movwf	(digitalWrite@value+1)^0,c
  3812  002440  0E01               	movlw	1
  3813  002442  6E03               	movwf	digitalWrite@value^0,c
  3814  002444  EC15  F008         	call	_digitalWrite	;wreg free
  3815  002448                     
  3816                           ;lcd.c: 86:  digitalWrite(PIN_E1, 0);
  3817  002448  0E00               	movlw	0
  3818  00244A  6E02               	movwf	(digitalWrite@pin+1)^0,c
  3819  00244C  0E21               	movlw	33
  3820  00244E  6E01               	movwf	digitalWrite@pin^0,c
  3821  002450  0E00               	movlw	0
  3822  002452  6E04               	movwf	(digitalWrite@value+1)^0,c
  3823  002454  0E00               	movlw	0
  3824  002456  6E03               	movwf	digitalWrite@value^0,c
  3825  002458  EC15  F008         	call	_digitalWrite	;wreg free
  3826  00245C                     
  3827                           ;lcd.c: 88:     PORTD= old_D;
  3828  00245C  C008  FF83         	movff	lcdData@old_D,3971	;volatile
  3829  002460                     
  3830                           ;lcd.c: 90:  Delay40us();
  3831  002460  ECB2  F012         	call	_Delay40us	;wreg free
  3832  002464  0012               	return		;funcret
  3833  002466                     __end_of_lcdData:
  3834                           	callstack 0
  3835                           
  3836 ;; *************** function _atraso_ms *****************
  3837 ;; Defined at:
  3838 ;;		line 26 in file "atraso.c"
  3839 ;; Parameters:    Size  Location     Type
  3840 ;;  valor           2    0[COMRAM] unsigned int 
  3841 ;; Auto vars:     Size  Location     Type
  3842 ;;  i               2    2[COMRAM] unsigned int 
  3843 ;;  k               1    5[COMRAM] volatile unsigned char 
  3844 ;;  j               1    4[COMRAM] volatile unsigned char 
  3845 ;; Return value:  Size  Location     Type
  3846 ;;                  1    wreg      void 
  3847 ;; Registers used:
  3848 ;;		wreg, status,2, status,0
  3849 ;; Tracked objects:
  3850 ;;		On entry : 0/0
  3851 ;;		On exit  : 0/0
  3852 ;;		Unchanged: 0/0
  3853 ;; Data sizes:     COMRAM   BANK0   BANK1   BANK2   BANK3   BANK4   BANK5
  3854 ;;      Params:         2       0       0       0       0       0       0
  3855 ;;      Locals:         4       0       0       0       0       0       0
  3856 ;;      Temps:          0       0       0       0       0       0       0
  3857 ;;      Totals:         6       0       0       0       0       0       0
  3858 ;;Total ram usage:        6 bytes
  3859 ;; Hardware stack levels used: 1
  3860 ;; This function calls:
  3861 ;;		Nothing
  3862 ;; This function is called by:
  3863 ;;		_petInicio
  3864 ;;		_petNao
  3865 ;;		_petFun
  3866 ;;		_petFome
  3867 ;;		_petX
  3868 ;;		_main
  3869 ;; This function uses a non-reentrant model
  3870 ;;
  3871                           
  3872                           	psect	text14
  3873  00234E                     __ptext14:
  3874                           	callstack 0
  3875  00234E                     _atraso_ms:
  3876                           	callstack 29
  3877  00234E                     
  3878                           ;atraso.c: 27:     unsigned int i;;atraso.c: 28:     volatile unsigned char j, k;;atraso
      +                          .c: 30:     for (i = 0; i < valor; i++) {
  3879  00234E  0E00               	movlw	0
  3880  002350  6E04               	movwf	(atraso_ms@i+1)^0,c
  3881  002352  0E00               	movlw	0
  3882  002354  6E03               	movwf	atraso_ms@i^0,c
  3883  002356  EFCD  F011         	goto	l2428
  3884  00235A                     l2406:
  3885                           
  3886                           ;atraso.c: 32:         for (j = 0; j < 41; j++) {
  3887  00235A  0E00               	movlw	0
  3888  00235C  6E05               	movwf	atraso_ms@j^0,c	;volatile
  3889  00235E                     l2408:
  3890  00235E  0E28               	movlw	40
  3891  002360  6405               	cpfsgt	atraso_ms@j^0,c	;volatile
  3892  002362  EFB5  F011         	goto	u2171
  3893  002366  EFB7  F011         	goto	u2170
  3894  00236A                     u2171:
  3895  00236A  EFB9  F011         	goto	l2412
  3896  00236E                     u2170:
  3897  00236E  EFCB  F011         	goto	l2426
  3898  002372                     l2412:
  3899                           
  3900                           ;atraso.c: 33:             for (k = 0; k < 3; k++);
  3901  002372  0E00               	movlw	0
  3902  002374  6E06               	movwf	atraso_ms@k^0,c	;volatile
  3903  002376                     l2414:
  3904  002376  0E02               	movlw	2
  3905  002378  6406               	cpfsgt	atraso_ms@k^0,c	;volatile
  3906  00237A  EFC1  F011         	goto	u2181
  3907  00237E  EFC3  F011         	goto	u2180
  3908  002382                     u2181:
  3909  002382  EFC5  F011         	goto	l2418
  3910  002386                     u2180:
  3911  002386  EFC8  F011         	goto	l2422
  3912  00238A                     l2418:
  3913  00238A  2A06               	incf	atraso_ms@k^0,f,c	;volatile
  3914  00238C  EFBB  F011         	goto	l2414
  3915  002390                     l2422:
  3916                           
  3917                           ;atraso.c: 34:         }
  3918  002390  2A05               	incf	atraso_ms@j^0,f,c	;volatile
  3919  002392  EFAF  F011         	goto	l2408
  3920  002396                     l2426:
  3921                           
  3922                           ;atraso.c: 35:     }
  3923  002396  4A03               	infsnz	atraso_ms@i^0,f,c
  3924  002398  2A04               	incf	(atraso_ms@i+1)^0,f,c
  3925  00239A                     l2428:
  3926  00239A  5001               	movf	atraso_ms@valor^0,w,c
  3927  00239C  5C03               	subwf	atraso_ms@i^0,w,c
  3928  00239E  5002               	movf	(atraso_ms@valor+1)^0,w,c
  3929  0023A0  5804               	subwfb	(atraso_ms@i+1)^0,w,c
  3930  0023A2  A0D8               	btfss	status,0,c
  3931  0023A4  EFD6  F011         	goto	u2191
  3932  0023A8  EFD8  F011         	goto	u2190
  3933  0023AC                     u2191:
  3934  0023AC  EFAD  F011         	goto	l2406
  3935  0023B0                     u2190:
  3936  0023B0  0012               	return		;funcret
  3937  0023B2                     __end_of_atraso_ms:
  3938                           	callstack 0
  3939                           
  3940 ;; *************** function _lcdInit *****************
  3941 ;; Defined at:
  3942 ;;		line 95 in file "lcd.c"
  3943 ;; Parameters:    Size  Location     Type
  3944 ;;		None
  3945 ;; Auto vars:     Size  Location     Type
  3946 ;;		None
  3947 ;; Return value:  Size  Location     Type
  3948 ;;                  1    wreg      void 
  3949 ;; Registers used:
  3950 ;;		wreg, status,2, status,0, cstack
  3951 ;; Tracked objects:
  3952 ;;		On entry : 0/0
  3953 ;;		On exit  : 0/0
  3954 ;;		Unchanged: 0/0
  3955 ;; Data sizes:     COMRAM   BANK0   BANK1   BANK2   BANK3   BANK4   BANK5
  3956 ;;      Params:         0       0       0       0       0       0       0
  3957 ;;      Locals:         0       0       0       0       0       0       0
  3958 ;;      Temps:          0       0       0       0       0       0       0
  3959 ;;      Totals:         0       0       0       0       0       0       0
  3960 ;;Total ram usage:        0 bytes
  3961 ;; Hardware stack levels used: 1
  3962 ;; Hardware stack levels required when called: 3
  3963 ;; This function calls:
  3964 ;;		_Delay2ms
  3965 ;;		_lcdCommand
  3966 ;;		_pinMode
  3967 ;; This function is called by:
  3968 ;;		_main
  3969 ;; This function uses a non-reentrant model
  3970 ;;
  3971                           
  3972                           	psect	text15
  3973  0021F6                     __ptext15:
  3974                           	callstack 0
  3975  0021F6                     _lcdInit:
  3976                           	callstack 27
  3977  0021F6                     
  3978                           ;lcd.c: 97:     pinMode(PIN_E2, 0);
  3979  0021F6  0E00               	movlw	0
  3980  0021F8  6E02               	movwf	(pinMode@pin+1)^0,c
  3981  0021FA  0E22               	movlw	34
  3982  0021FC  6E01               	movwf	pinMode@pin^0,c
  3983  0021FE  0E00               	movlw	0
  3984  002200  6E04               	movwf	(pinMode@type+1)^0,c
  3985  002202  0E00               	movlw	0
  3986  002204  6E03               	movwf	pinMode@type^0,c
  3987  002206  ECEE  F006         	call	_pinMode	;wreg free
  3988                           
  3989                           ;lcd.c: 98:     pinMode(PIN_E1, 0);
  3990  00220A  0E00               	movlw	0
  3991  00220C  6E02               	movwf	(pinMode@pin+1)^0,c
  3992  00220E  0E21               	movlw	33
  3993  002210  6E01               	movwf	pinMode@pin^0,c
  3994  002212  0E00               	movlw	0
  3995  002214  6E04               	movwf	(pinMode@type+1)^0,c
  3996  002216  0E00               	movlw	0
  3997  002218  6E03               	movwf	pinMode@type^0,c
  3998  00221A  ECEE  F006         	call	_pinMode	;wreg free
  3999  00221E                     
  4000                           ;lcd.c: 99:  TRISD = 0x00;
  4001  00221E  0E00               	movlw	0
  4002  002220  6E95               	movwf	149,c	;volatile
  4003  002222                     
  4004                           ;lcd.c: 102:  Delay2ms(); Delay2ms(); Delay2ms(); Delay2ms(); Delay2ms();
  4005  002222  EC97  F012         	call	_Delay2ms	;wreg free
  4006  002226  EC97  F012         	call	_Delay2ms	;wreg free
  4007  00222A  EC97  F012         	call	_Delay2ms	;wreg free
  4008  00222E  EC97  F012         	call	_Delay2ms	;wreg free
  4009  002232  EC97  F012         	call	_Delay2ms	;wreg free
  4010  002236                     
  4011                           ;lcd.c: 104:     lcdCommand(0x38);
  4012  002236  0E38               	movlw	56
  4013  002238  ECBC  F010         	call	_lcdCommand
  4014  00223C                     
  4015                           ;lcd.c: 105:     Delay2ms(); Delay2ms();
  4016  00223C  EC97  F012         	call	_Delay2ms	;wreg free
  4017  002240  EC97  F012         	call	_Delay2ms	;wreg free
  4018  002244                     
  4019                           ;lcd.c: 106:     lcdCommand(0x38);
  4020  002244  0E38               	movlw	56
  4021  002246  ECBC  F010         	call	_lcdCommand
  4022  00224A                     
  4023                           ;lcd.c: 107:     Delay2ms();
  4024  00224A  EC97  F012         	call	_Delay2ms	;wreg free
  4025  00224E                     
  4026                           ;lcd.c: 108:     lcdCommand(0x38);
  4027  00224E  0E38               	movlw	56
  4028  002250  ECBC  F010         	call	_lcdCommand
  4029  002254                     
  4030                           ;lcd.c: 110:     lcdCommand(0x38);
  4031  002254  0E38               	movlw	56
  4032  002256  ECBC  F010         	call	_lcdCommand
  4033  00225A                     
  4034                           ;lcd.c: 111:     lcdCommand(0x06);
  4035  00225A  0E06               	movlw	6
  4036  00225C  ECBC  F010         	call	_lcdCommand
  4037  002260                     
  4038                           ;lcd.c: 114:     lcdCommand(0x0C);
  4039  002260  0E0C               	movlw	12
  4040  002262  ECBC  F010         	call	_lcdCommand
  4041  002266                     
  4042                           ;lcd.c: 115:     lcdCommand(0x01);
  4043  002266  0E01               	movlw	1
  4044  002268  ECBC  F010         	call	_lcdCommand
  4045  00226C  0012               	return		;funcret
  4046  00226E                     __end_of_lcdInit:
  4047                           	callstack 0
  4048                           
  4049 ;; *************** function _pinMode *****************
  4050 ;; Defined at:
  4051 ;;		line 54 in file "io.c"
  4052 ;; Parameters:    Size  Location     Type
  4053 ;;  pin             2    0[COMRAM] int 
  4054 ;;  type            2    2[COMRAM] int 
  4055 ;; Auto vars:     Size  Location     Type
  4056 ;;		None
  4057 ;; Return value:  Size  Location     Type
  4058 ;;                  1    wreg      void 
  4059 ;; Registers used:
  4060 ;;		wreg, status,2, status,0
  4061 ;; Tracked objects:
  4062 ;;		On entry : 0/0
  4063 ;;		On exit  : 0/0
  4064 ;;		Unchanged: 0/0
  4065 ;; Data sizes:     COMRAM   BANK0   BANK1   BANK2   BANK3   BANK4   BANK5
  4066 ;;      Params:         4       0       0       0       0       0       0
  4067 ;;      Locals:         0       0       0       0       0       0       0
  4068 ;;      Temps:          2       0       0       0       0       0       0
  4069 ;;      Totals:         6       0       0       0       0       0       0
  4070 ;;Total ram usage:        6 bytes
  4071 ;; Hardware stack levels used: 1
  4072 ;; This function calls:
  4073 ;;		Nothing
  4074 ;; This function is called by:
  4075 ;;		_lcdInit
  4076 ;;		_ssdInit
  4077 ;; This function uses a non-reentrant model
  4078 ;;
  4079                           
  4080                           	psect	text16
  4081  000DDC                     __ptext16:
  4082                           	callstack 0
  4083  000DDC                     _pinMode:
  4084                           	callstack 29
  4085  000DDC                     
  4086                           ;io.c: 56:     if(pin <8){
  4087  000DDC  BE02               	btfsc	(pinMode@pin+1)^0,7,c
  4088  000DDE  EFFC  F006         	goto	u1970
  4089  000DE2  5002               	movf	(pinMode@pin+1)^0,w,c
  4090  000DE4  E107               	bnz	u1971
  4091  000DE6  0E08               	movlw	8
  4092  000DE8  5C01               	subwf	pinMode@pin^0,w,c
  4093  000DEA  B0D8               	btfsc	status,0,c
  4094  000DEC  EFFA  F006         	goto	u1971
  4095  000DF0  EFFC  F006         	goto	u1970
  4096  000DF4                     u1971:
  4097  000DF4  EF26  F007         	goto	l2372
  4098  000DF8                     u1970:
  4099  000DF8                     
  4100                           ;io.c: 57:         if (type){ ((TRISA) |= (1<<(pin)));}
  4101  000DF8  5003               	movf	pinMode@type^0,w,c
  4102  000DFA  1004               	iorwf	(pinMode@type+1)^0,w,c
  4103  000DFC  B4D8               	btfsc	status,2,c
  4104  000DFE  EF03  F007         	goto	u1981
  4105  000E02  EF05  F007         	goto	u1980
  4106  000E06                     u1981:
  4107  000E06  EF15  F007         	goto	l2370
  4108  000E0A                     u1980:
  4109  000E0A  C001  F005         	movff	pinMode@pin,??_pinMode
  4110  000E0E  0E01               	movlw	1
  4111  000E10  6E06               	movwf	(??_pinMode+1)^0,c
  4112  000E12  2A05               	incf	??_pinMode^0,f,c
  4113  000E14  EF0E  F007         	goto	u1994
  4114  000E18                     u1995:
  4115  000E18  90D8               	bcf	status,0,c
  4116  000E1A  3606               	rlcf	(??_pinMode+1)^0,f,c
  4117  000E1C                     u1994:
  4118  000E1C  2E05               	decfsz	??_pinMode^0,f,c
  4119  000E1E  EF0C  F007         	goto	u1995
  4120  000E22  5006               	movf	(??_pinMode+1)^0,w,c
  4121  000E24  1292               	iorwf	146,f,c	;volatile
  4122  000E26  EF14  F008         	goto	l76
  4123  000E2A                     l2370:
  4124  000E2A  C001  F005         	movff	pinMode@pin,??_pinMode
  4125  000E2E  0E01               	movlw	1
  4126  000E30  6E06               	movwf	(??_pinMode+1)^0,c
  4127  000E32  2A05               	incf	??_pinMode^0,f,c
  4128  000E34  EF1E  F007         	goto	u2004
  4129  000E38                     u2005:
  4130  000E38  90D8               	bcf	status,0,c
  4131  000E3A  3606               	rlcf	(??_pinMode+1)^0,f,c
  4132  000E3C                     u2004:
  4133  000E3C  2E05               	decfsz	??_pinMode^0,f,c
  4134  000E3E  EF1C  F007         	goto	u2005
  4135  000E42  5006               	movf	(??_pinMode+1)^0,w,c
  4136  000E44  0AFF               	xorlw	255
  4137  000E46  1692               	andwf	146,f,c	;volatile
  4138  000E48  EF14  F008         	goto	l76
  4139  000E4C                     l2372:
  4140  000E4C  BE02               	btfsc	(pinMode@pin+1)^0,7,c
  4141  000E4E  EF34  F007         	goto	u2010
  4142  000E52  5002               	movf	(pinMode@pin+1)^0,w,c
  4143  000E54  E107               	bnz	u2011
  4144  000E56  0E10               	movlw	16
  4145  000E58  5C01               	subwf	pinMode@pin^0,w,c
  4146  000E5A  B0D8               	btfsc	status,0,c
  4147  000E5C  EF32  F007         	goto	u2011
  4148  000E60  EF34  F007         	goto	u2010
  4149  000E64                     u2011:
  4150  000E64  EF62  F007         	goto	l2380
  4151  000E68                     u2010:
  4152  000E68                     
  4153                           ;io.c: 60:         if (type){ ((TRISB) |= (1<<(pin-8)));}
  4154  000E68  5003               	movf	pinMode@type^0,w,c
  4155  000E6A  1004               	iorwf	(pinMode@type+1)^0,w,c
  4156  000E6C  B4D8               	btfsc	status,2,c
  4157  000E6E  EF3B  F007         	goto	u2021
  4158  000E72  EF3D  F007         	goto	u2020
  4159  000E76                     u2021:
  4160  000E76  EF4F  F007         	goto	l2378
  4161  000E7A                     u2020:
  4162  000E7A  C001  F005         	movff	pinMode@pin,??_pinMode
  4163  000E7E  0EF8               	movlw	-8
  4164  000E80  2605               	addwf	??_pinMode^0,f,c
  4165  000E82  0E01               	movlw	1
  4166  000E84  6E06               	movwf	(??_pinMode+1)^0,c
  4167  000E86  2A05               	incf	??_pinMode^0,f,c
  4168  000E88  EF48  F007         	goto	u2034
  4169  000E8C                     u2035:
  4170  000E8C  90D8               	bcf	status,0,c
  4171  000E8E  3606               	rlcf	(??_pinMode+1)^0,f,c
  4172  000E90                     u2034:
  4173  000E90  2E05               	decfsz	??_pinMode^0,f,c
  4174  000E92  EF46  F007         	goto	u2035
  4175  000E96  5006               	movf	(??_pinMode+1)^0,w,c
  4176  000E98  1293               	iorwf	147,f,c	;volatile
  4177  000E9A  EF14  F008         	goto	l76
  4178  000E9E                     l2378:
  4179  000E9E  C001  F005         	movff	pinMode@pin,??_pinMode
  4180  000EA2  0EF8               	movlw	-8
  4181  000EA4  2605               	addwf	??_pinMode^0,f,c
  4182  000EA6  0E01               	movlw	1
  4183  000EA8  6E06               	movwf	(??_pinMode+1)^0,c
  4184  000EAA  2A05               	incf	??_pinMode^0,f,c
  4185  000EAC  EF5A  F007         	goto	u2044
  4186  000EB0                     u2045:
  4187  000EB0  90D8               	bcf	status,0,c
  4188  000EB2  3606               	rlcf	(??_pinMode+1)^0,f,c
  4189  000EB4                     u2044:
  4190  000EB4  2E05               	decfsz	??_pinMode^0,f,c
  4191  000EB6  EF58  F007         	goto	u2045
  4192  000EBA  5006               	movf	(??_pinMode+1)^0,w,c
  4193  000EBC  0AFF               	xorlw	255
  4194  000EBE  1693               	andwf	147,f,c	;volatile
  4195  000EC0  EF14  F008         	goto	l76
  4196  000EC4                     l2380:
  4197  000EC4  BE02               	btfsc	(pinMode@pin+1)^0,7,c
  4198  000EC6  EF70  F007         	goto	u2050
  4199  000ECA  5002               	movf	(pinMode@pin+1)^0,w,c
  4200  000ECC  E107               	bnz	u2051
  4201  000ECE  0E18               	movlw	24
  4202  000ED0  5C01               	subwf	pinMode@pin^0,w,c
  4203  000ED2  B0D8               	btfsc	status,0,c
  4204  000ED4  EF6E  F007         	goto	u2051
  4205  000ED8  EF70  F007         	goto	u2050
  4206  000EDC                     u2051:
  4207  000EDC  EF9E  F007         	goto	l2388
  4208  000EE0                     u2050:
  4209  000EE0                     
  4210                           ;io.c: 63:         if (type){ ((TRISC) |= (1<<(pin-16)));}
  4211  000EE0  5003               	movf	pinMode@type^0,w,c
  4212  000EE2  1004               	iorwf	(pinMode@type+1)^0,w,c
  4213  000EE4  B4D8               	btfsc	status,2,c
  4214  000EE6  EF77  F007         	goto	u2061
  4215  000EEA  EF79  F007         	goto	u2060
  4216  000EEE                     u2061:
  4217  000EEE  EF8B  F007         	goto	l2386
  4218  000EF2                     u2060:
  4219  000EF2  C001  F005         	movff	pinMode@pin,??_pinMode
  4220  000EF6  0EF0               	movlw	-16
  4221  000EF8  2605               	addwf	??_pinMode^0,f,c
  4222  000EFA  0E01               	movlw	1
  4223  000EFC  6E06               	movwf	(??_pinMode+1)^0,c
  4224  000EFE  2A05               	incf	??_pinMode^0,f,c
  4225  000F00  EF84  F007         	goto	u2074
  4226  000F04                     u2075:
  4227  000F04  90D8               	bcf	status,0,c
  4228  000F06  3606               	rlcf	(??_pinMode+1)^0,f,c
  4229  000F08                     u2074:
  4230  000F08  2E05               	decfsz	??_pinMode^0,f,c
  4231  000F0A  EF82  F007         	goto	u2075
  4232  000F0E  5006               	movf	(??_pinMode+1)^0,w,c
  4233  000F10  1294               	iorwf	148,f,c	;volatile
  4234  000F12  EF14  F008         	goto	l76
  4235  000F16                     l2386:
  4236  000F16  C001  F005         	movff	pinMode@pin,??_pinMode
  4237  000F1A  0EF0               	movlw	-16
  4238  000F1C  2605               	addwf	??_pinMode^0,f,c
  4239  000F1E  0E01               	movlw	1
  4240  000F20  6E06               	movwf	(??_pinMode+1)^0,c
  4241  000F22  2A05               	incf	??_pinMode^0,f,c
  4242  000F24  EF96  F007         	goto	u2084
  4243  000F28                     u2085:
  4244  000F28  90D8               	bcf	status,0,c
  4245  000F2A  3606               	rlcf	(??_pinMode+1)^0,f,c
  4246  000F2C                     u2084:
  4247  000F2C  2E05               	decfsz	??_pinMode^0,f,c
  4248  000F2E  EF94  F007         	goto	u2085
  4249  000F32  5006               	movf	(??_pinMode+1)^0,w,c
  4250  000F34  0AFF               	xorlw	255
  4251  000F36  1694               	andwf	148,f,c	;volatile
  4252  000F38  EF14  F008         	goto	l76
  4253  000F3C                     l2388:
  4254  000F3C  BE02               	btfsc	(pinMode@pin+1)^0,7,c
  4255  000F3E  EFAC  F007         	goto	u2090
  4256  000F42  5002               	movf	(pinMode@pin+1)^0,w,c
  4257  000F44  E107               	bnz	u2091
  4258  000F46  0E20               	movlw	32
  4259  000F48  5C01               	subwf	pinMode@pin^0,w,c
  4260  000F4A  B0D8               	btfsc	status,0,c
  4261  000F4C  EFAA  F007         	goto	u2091
  4262  000F50  EFAC  F007         	goto	u2090
  4263  000F54                     u2091:
  4264  000F54  EFDA  F007         	goto	l2396
  4265  000F58                     u2090:
  4266  000F58                     
  4267                           ;io.c: 66:         if (type){ ((TRISD) |= (1<<(pin-24)));}
  4268  000F58  5003               	movf	pinMode@type^0,w,c
  4269  000F5A  1004               	iorwf	(pinMode@type+1)^0,w,c
  4270  000F5C  B4D8               	btfsc	status,2,c
  4271  000F5E  EFB3  F007         	goto	u2101
  4272  000F62  EFB5  F007         	goto	u2100
  4273  000F66                     u2101:
  4274  000F66  EFC7  F007         	goto	l2394
  4275  000F6A                     u2100:
  4276  000F6A  C001  F005         	movff	pinMode@pin,??_pinMode
  4277  000F6E  0EE8               	movlw	-24
  4278  000F70  2605               	addwf	??_pinMode^0,f,c
  4279  000F72  0E01               	movlw	1
  4280  000F74  6E06               	movwf	(??_pinMode+1)^0,c
  4281  000F76  2A05               	incf	??_pinMode^0,f,c
  4282  000F78  EFC0  F007         	goto	u2114
  4283  000F7C                     u2115:
  4284  000F7C  90D8               	bcf	status,0,c
  4285  000F7E  3606               	rlcf	(??_pinMode+1)^0,f,c
  4286  000F80                     u2114:
  4287  000F80  2E05               	decfsz	??_pinMode^0,f,c
  4288  000F82  EFBE  F007         	goto	u2115
  4289  000F86  5006               	movf	(??_pinMode+1)^0,w,c
  4290  000F88  1295               	iorwf	149,f,c	;volatile
  4291  000F8A  EF14  F008         	goto	l76
  4292  000F8E                     l2394:
  4293  000F8E  C001  F005         	movff	pinMode@pin,??_pinMode
  4294  000F92  0EE8               	movlw	-24
  4295  000F94  2605               	addwf	??_pinMode^0,f,c
  4296  000F96  0E01               	movlw	1
  4297  000F98  6E06               	movwf	(??_pinMode+1)^0,c
  4298  000F9A  2A05               	incf	??_pinMode^0,f,c
  4299  000F9C  EFD2  F007         	goto	u2124
  4300  000FA0                     u2125:
  4301  000FA0  90D8               	bcf	status,0,c
  4302  000FA2  3606               	rlcf	(??_pinMode+1)^0,f,c
  4303  000FA4                     u2124:
  4304  000FA4  2E05               	decfsz	??_pinMode^0,f,c
  4305  000FA6  EFD0  F007         	goto	u2125
  4306  000FAA  5006               	movf	(??_pinMode+1)^0,w,c
  4307  000FAC  0AFF               	xorlw	255
  4308  000FAE  1695               	andwf	149,f,c	;volatile
  4309  000FB0  EF14  F008         	goto	l76
  4310  000FB4                     l2396:
  4311  000FB4  BE02               	btfsc	(pinMode@pin+1)^0,7,c
  4312  000FB6  EFE8  F007         	goto	u2130
  4313  000FBA  5002               	movf	(pinMode@pin+1)^0,w,c
  4314  000FBC  E107               	bnz	u2131
  4315  000FBE  0E28               	movlw	40
  4316  000FC0  5C01               	subwf	pinMode@pin^0,w,c
  4317  000FC2  B0D8               	btfsc	status,0,c
  4318  000FC4  EFE6  F007         	goto	u2131
  4319  000FC8  EFE8  F007         	goto	u2130
  4320  000FCC                     u2131:
  4321  000FCC  EF14  F008         	goto	l76
  4322  000FD0                     u2130:
  4323  000FD0                     
  4324                           ;io.c: 69:         if (type){ ((TRISE) |= (1<<(pin-32)));}
  4325  000FD0  5003               	movf	pinMode@type^0,w,c
  4326  000FD2  1004               	iorwf	(pinMode@type+1)^0,w,c
  4327  000FD4  B4D8               	btfsc	status,2,c
  4328  000FD6  EFEF  F007         	goto	u2141
  4329  000FDA  EFF1  F007         	goto	u2140
  4330  000FDE                     u2141:
  4331  000FDE  EF03  F008         	goto	l2402
  4332  000FE2                     u2140:
  4333  000FE2  C001  F005         	movff	pinMode@pin,??_pinMode
  4334  000FE6  0EE0               	movlw	-32
  4335  000FE8  2605               	addwf	??_pinMode^0,f,c
  4336  000FEA  0E01               	movlw	1
  4337  000FEC  6E06               	movwf	(??_pinMode+1)^0,c
  4338  000FEE  2A05               	incf	??_pinMode^0,f,c
  4339  000FF0  EFFC  F007         	goto	u2154
  4340  000FF4                     u2155:
  4341  000FF4  90D8               	bcf	status,0,c
  4342  000FF6  3606               	rlcf	(??_pinMode+1)^0,f,c
  4343  000FF8                     u2154:
  4344  000FF8  2E05               	decfsz	??_pinMode^0,f,c
  4345  000FFA  EFFA  F007         	goto	u2155
  4346  000FFE  5006               	movf	(??_pinMode+1)^0,w,c
  4347  001000  1296               	iorwf	150,f,c	;volatile
  4348  001002  EF14  F008         	goto	l76
  4349  001006                     l2402:
  4350  001006  C001  F005         	movff	pinMode@pin,??_pinMode
  4351  00100A  0EE0               	movlw	-32
  4352  00100C  2605               	addwf	??_pinMode^0,f,c
  4353  00100E  0E01               	movlw	1
  4354  001010  6E06               	movwf	(??_pinMode+1)^0,c
  4355  001012  2A05               	incf	??_pinMode^0,f,c
  4356  001014  EF0E  F008         	goto	u2164
  4357  001018                     u2165:
  4358  001018  90D8               	bcf	status,0,c
  4359  00101A  3606               	rlcf	(??_pinMode+1)^0,f,c
  4360  00101C                     u2164:
  4361  00101C  2E05               	decfsz	??_pinMode^0,f,c
  4362  00101E  EF0C  F008         	goto	u2165
  4363  001022  5006               	movf	(??_pinMode+1)^0,w,c
  4364  001024  0AFF               	xorlw	255
  4365  001026  1696               	andwf	150,f,c	;volatile
  4366  001028                     l76:
  4367  001028  0012               	return		;funcret
  4368  00102A                     __end_of_pinMode:
  4369                           	callstack 0
  4370                           
  4371 ;; *************** function _lcdCommand *****************
  4372 ;; Defined at:
  4373 ;;		line 48 in file "lcd.c"
  4374 ;; Parameters:    Size  Location     Type
  4375 ;;  cmd             1    wreg     unsigned char 
  4376 ;; Auto vars:     Size  Location     Type
  4377 ;;  cmd             1    7[COMRAM] unsigned char 
  4378 ;;  old_D           1    6[COMRAM] unsigned char 
  4379 ;; Return value:  Size  Location     Type
  4380 ;;                  1    wreg      void 
  4381 ;; Registers used:
  4382 ;;		wreg, status,2, status,0, cstack
  4383 ;; Tracked objects:
  4384 ;;		On entry : 0/0
  4385 ;;		On exit  : 0/0
  4386 ;;		Unchanged: 0/0
  4387 ;; Data sizes:     COMRAM   BANK0   BANK1   BANK2   BANK3   BANK4   BANK5
  4388 ;;      Params:         0       0       0       0       0       0       0
  4389 ;;      Locals:         2       0       0       0       0       0       0
  4390 ;;      Temps:          0       0       0       0       0       0       0
  4391 ;;      Totals:         2       0       0       0       0       0       0
  4392 ;;Total ram usage:        2 bytes
  4393 ;; Hardware stack levels used: 1
  4394 ;; Hardware stack levels required when called: 2
  4395 ;; This function calls:
  4396 ;;		_Delay2ms
  4397 ;;		_Delay40us
  4398 ;;		_digitalWrite
  4399 ;; This function is called by:
  4400 ;;		_petInicio
  4401 ;;		_petNao
  4402 ;;		_petFun
  4403 ;;		_petFome
  4404 ;;		_petX
  4405 ;;		_main
  4406 ;;		_lcdInit
  4407 ;; This function uses a non-reentrant model
  4408 ;;
  4409                           
  4410                           	psect	text17
  4411  002178                     __ptext17:
  4412                           	callstack 0
  4413  002178                     _lcdCommand:
  4414                           	callstack 27
  4415                           
  4416                           ;incstack = 0
  4417                           ;lcdCommand@cmd stored from wreg
  4418  002178  6E08               	movwf	lcdCommand@cmd^0,c
  4419  00217A                     
  4420                           ;lcd.c: 48: void lcdCommand(unsigned char cmd);lcd.c: 49: {;lcd.c: 50:     unsigned char
      +                           old_D;;lcd.c: 51:     old_D = PORTD;
  4421  00217A  CF83 F007          	movff	3971,lcdCommand@old_D	;volatile
  4422  00217E                     
  4423                           ;lcd.c: 54:     TRISD = 0x00;
  4424  00217E  0E00               	movlw	0
  4425  002180  6E95               	movwf	149,c	;volatile
  4426  002182                     
  4427                           ;lcd.c: 56:  digitalWrite(PIN_E2, 0);
  4428  002182  0E00               	movlw	0
  4429  002184  6E02               	movwf	(digitalWrite@pin+1)^0,c
  4430  002186  0E22               	movlw	34
  4431  002188  6E01               	movwf	digitalWrite@pin^0,c
  4432  00218A  0E00               	movlw	0
  4433  00218C  6E04               	movwf	(digitalWrite@value+1)^0,c
  4434  00218E  0E00               	movlw	0
  4435  002190  6E03               	movwf	digitalWrite@value^0,c
  4436  002192  EC15  F008         	call	_digitalWrite	;wreg free
  4437  002196                     
  4438                           ;lcd.c: 57:  PORTD = cmd;
  4439  002196  C008  FF83         	movff	lcdCommand@cmd,3971	;volatile
  4440  00219A                     
  4441                           ;lcd.c: 59:     digitalWrite(PIN_E1, 1);
  4442  00219A  0E00               	movlw	0
  4443  00219C  6E02               	movwf	(digitalWrite@pin+1)^0,c
  4444  00219E  0E21               	movlw	33
  4445  0021A0  6E01               	movwf	digitalWrite@pin^0,c
  4446  0021A2  0E00               	movlw	0
  4447  0021A4  6E04               	movwf	(digitalWrite@value+1)^0,c
  4448  0021A6  0E01               	movlw	1
  4449  0021A8  6E03               	movwf	digitalWrite@value^0,c
  4450  0021AA  EC15  F008         	call	_digitalWrite	;wreg free
  4451  0021AE                     
  4452                           ;lcd.c: 60:  digitalWrite(PIN_E1, 0);
  4453  0021AE  0E00               	movlw	0
  4454  0021B0  6E02               	movwf	(digitalWrite@pin+1)^0,c
  4455  0021B2  0E21               	movlw	33
  4456  0021B4  6E01               	movwf	digitalWrite@pin^0,c
  4457  0021B6  0E00               	movlw	0
  4458  0021B8  6E04               	movwf	(digitalWrite@value+1)^0,c
  4459  0021BA  0E00               	movlw	0
  4460  0021BC  6E03               	movwf	digitalWrite@value^0,c
  4461  0021BE  EC15  F008         	call	_digitalWrite	;wreg free
  4462  0021C2                     
  4463                           ;lcd.c: 63:     PORTD= old_D;
  4464  0021C2  C007  FF83         	movff	lcdCommand@old_D,3971	;volatile
  4465  0021C6                     
  4466                           ;lcd.c: 65:     if((cmd == 0x02)||(cmd == 0x01)){
  4467  0021C6  0E02               	movlw	2
  4468  0021C8  1808               	xorwf	lcdCommand@cmd^0,w,c
  4469  0021CA  B4D8               	btfsc	status,2,c
  4470  0021CC  EFEA  F010         	goto	u2201
  4471  0021D0  EFEC  F010         	goto	u2200
  4472  0021D4                     u2201:
  4473  0021D4  EFF4  F010         	goto	l2448
  4474  0021D8                     u2200:
  4475  0021D8  0408               	decf	lcdCommand@cmd^0,w,c
  4476  0021DA  A4D8               	btfss	status,2,c
  4477  0021DC  EFF2  F010         	goto	u2211
  4478  0021E0  EFF4  F010         	goto	u2210
  4479  0021E4                     u2211:
  4480  0021E4  EFF8  F010         	goto	l2450
  4481  0021E8                     u2210:
  4482  0021E8                     l2448:
  4483                           
  4484                           ;lcd.c: 66:        Delay2ms();
  4485  0021E8  EC97  F012         	call	_Delay2ms	;wreg free
  4486                           
  4487                           ;lcd.c: 67:     }else{
  4488  0021EC  EFFA  F010         	goto	l343
  4489  0021F0                     l2450:
  4490                           
  4491                           ;lcd.c: 68:     Delay40us();
  4492  0021F0  ECB2  F012         	call	_Delay40us	;wreg free
  4493  0021F4                     l343:
  4494  0021F4  0012               	return		;funcret
  4495  0021F6                     __end_of_lcdCommand:
  4496                           	callstack 0
  4497                           
  4498 ;; *************** function _digitalWrite *****************
  4499 ;; Defined at:
  4500 ;;		line 14 in file "io.c"
  4501 ;; Parameters:    Size  Location     Type
  4502 ;;  pin             2    0[COMRAM] int 
  4503 ;;  value           2    2[COMRAM] int 
  4504 ;; Auto vars:     Size  Location     Type
  4505 ;;		None
  4506 ;; Return value:  Size  Location     Type
  4507 ;;                  1    wreg      void 
  4508 ;; Registers used:
  4509 ;;		wreg, status,2, status,0
  4510 ;; Tracked objects:
  4511 ;;		On entry : 0/0
  4512 ;;		On exit  : 0/0
  4513 ;;		Unchanged: 0/0
  4514 ;; Data sizes:     COMRAM   BANK0   BANK1   BANK2   BANK3   BANK4   BANK5
  4515 ;;      Params:         4       0       0       0       0       0       0
  4516 ;;      Locals:         0       0       0       0       0       0       0
  4517 ;;      Temps:          2       0       0       0       0       0       0
  4518 ;;      Totals:         6       0       0       0       0       0       0
  4519 ;;Total ram usage:        6 bytes
  4520 ;; Hardware stack levels used: 1
  4521 ;; This function calls:
  4522 ;;		Nothing
  4523 ;; This function is called by:
  4524 ;;		_lcdCommand
  4525 ;;		_lcdData
  4526 ;;		_ssdUpdate
  4527 ;; This function uses a non-reentrant model
  4528 ;;
  4529                           
  4530                           	psect	text18
  4531  00102A                     __ptext18:
  4532                           	callstack 0
  4533  00102A                     _digitalWrite:
  4534                           	callstack 28
  4535  00102A                     
  4536                           ;io.c: 16:     if(pin <8){
  4537  00102A  BE02               	btfsc	(digitalWrite@pin+1)^0,7,c
  4538  00102C  EF23  F008         	goto	u1660
  4539  001030  5002               	movf	(digitalWrite@pin+1)^0,w,c
  4540  001032  E107               	bnz	u1661
  4541  001034  0E08               	movlw	8
  4542  001036  5C01               	subwf	digitalWrite@pin^0,w,c
  4543  001038  B0D8               	btfsc	status,0,c
  4544  00103A  EF21  F008         	goto	u1661
  4545  00103E  EF23  F008         	goto	u1660
  4546  001042                     u1661:
  4547  001042  EF4D  F008         	goto	l2222
  4548  001046                     u1660:
  4549  001046                     
  4550                           ;io.c: 17:         if (value){ ((PORTA) |= (1<<(pin)));}
  4551  001046  5003               	movf	digitalWrite@value^0,w,c
  4552  001048  1004               	iorwf	(digitalWrite@value+1)^0,w,c
  4553  00104A  B4D8               	btfsc	status,2,c
  4554  00104C  EF2A  F008         	goto	u1671
  4555  001050  EF2C  F008         	goto	u1670
  4556  001054                     u1671:
  4557  001054  EF3C  F008         	goto	l2220
  4558  001058                     u1670:
  4559  001058  C001  F005         	movff	digitalWrite@pin,??_digitalWrite
  4560  00105C  0E01               	movlw	1
  4561  00105E  6E06               	movwf	(??_digitalWrite+1)^0,c
  4562  001060  2A05               	incf	??_digitalWrite^0,f,c
  4563  001062  EF35  F008         	goto	u1684
  4564  001066                     u1685:
  4565  001066  90D8               	bcf	status,0,c
  4566  001068  3606               	rlcf	(??_digitalWrite+1)^0,f,c
  4567  00106A                     u1684:
  4568  00106A  2E05               	decfsz	??_digitalWrite^0,f,c
  4569  00106C  EF33  F008         	goto	u1685
  4570  001070  5006               	movf	(??_digitalWrite+1)^0,w,c
  4571  001072  1280               	iorwf	128,f,c	;volatile
  4572  001074  EF3B  F009         	goto	l42
  4573  001078                     l2220:
  4574  001078  C001  F005         	movff	digitalWrite@pin,??_digitalWrite
  4575  00107C  0E01               	movlw	1
  4576  00107E  6E06               	movwf	(??_digitalWrite+1)^0,c
  4577  001080  2A05               	incf	??_digitalWrite^0,f,c
  4578  001082  EF45  F008         	goto	u1694
  4579  001086                     u1695:
  4580  001086  90D8               	bcf	status,0,c
  4581  001088  3606               	rlcf	(??_digitalWrite+1)^0,f,c
  4582  00108A                     u1694:
  4583  00108A  2E05               	decfsz	??_digitalWrite^0,f,c
  4584  00108C  EF43  F008         	goto	u1695
  4585  001090  5006               	movf	(??_digitalWrite+1)^0,w,c
  4586  001092  0AFF               	xorlw	255
  4587  001094  1680               	andwf	128,f,c	;volatile
  4588  001096  EF3B  F009         	goto	l42
  4589  00109A                     l2222:
  4590  00109A  BE02               	btfsc	(digitalWrite@pin+1)^0,7,c
  4591  00109C  EF5B  F008         	goto	u1700
  4592  0010A0  5002               	movf	(digitalWrite@pin+1)^0,w,c
  4593  0010A2  E107               	bnz	u1701
  4594  0010A4  0E10               	movlw	16
  4595  0010A6  5C01               	subwf	digitalWrite@pin^0,w,c
  4596  0010A8  B0D8               	btfsc	status,0,c
  4597  0010AA  EF59  F008         	goto	u1701
  4598  0010AE  EF5B  F008         	goto	u1700
  4599  0010B2                     u1701:
  4600  0010B2  EF89  F008         	goto	l2230
  4601  0010B6                     u1700:
  4602  0010B6                     
  4603                           ;io.c: 20:         pin -=8;
  4604  0010B6  0EF8               	movlw	248
  4605  0010B8  2601               	addwf	digitalWrite@pin^0,f,c
  4606  0010BA  0EFF               	movlw	255
  4607  0010BC  2202               	addwfc	(digitalWrite@pin+1)^0,f,c
  4608                           
  4609                           ;io.c: 21:         if (value){ ((PORTB) |= (1<<(pin)));}
  4610  0010BE  5003               	movf	digitalWrite@value^0,w,c
  4611  0010C0  1004               	iorwf	(digitalWrite@value+1)^0,w,c
  4612  0010C2  B4D8               	btfsc	status,2,c
  4613  0010C4  EF66  F008         	goto	u1711
  4614  0010C8  EF68  F008         	goto	u1710
  4615  0010CC                     u1711:
  4616  0010CC  EF78  F008         	goto	l2228
  4617  0010D0                     u1710:
  4618  0010D0  C001  F005         	movff	digitalWrite@pin,??_digitalWrite
  4619  0010D4  0E01               	movlw	1
  4620  0010D6  6E06               	movwf	(??_digitalWrite+1)^0,c
  4621  0010D8  2A05               	incf	??_digitalWrite^0,f,c
  4622  0010DA  EF71  F008         	goto	u1724
  4623  0010DE                     u1725:
  4624  0010DE  90D8               	bcf	status,0,c
  4625  0010E0  3606               	rlcf	(??_digitalWrite+1)^0,f,c
  4626  0010E2                     u1724:
  4627  0010E2  2E05               	decfsz	??_digitalWrite^0,f,c
  4628  0010E4  EF6F  F008         	goto	u1725
  4629  0010E8  5006               	movf	(??_digitalWrite+1)^0,w,c
  4630  0010EA  1281               	iorwf	129,f,c	;volatile
  4631  0010EC  EF3B  F009         	goto	l42
  4632  0010F0                     l2228:
  4633  0010F0  C001  F005         	movff	digitalWrite@pin,??_digitalWrite
  4634  0010F4  0E01               	movlw	1
  4635  0010F6  6E06               	movwf	(??_digitalWrite+1)^0,c
  4636  0010F8  2A05               	incf	??_digitalWrite^0,f,c
  4637  0010FA  EF81  F008         	goto	u1734
  4638  0010FE                     u1735:
  4639  0010FE  90D8               	bcf	status,0,c
  4640  001100  3606               	rlcf	(??_digitalWrite+1)^0,f,c
  4641  001102                     u1734:
  4642  001102  2E05               	decfsz	??_digitalWrite^0,f,c
  4643  001104  EF7F  F008         	goto	u1735
  4644  001108  5006               	movf	(??_digitalWrite+1)^0,w,c
  4645  00110A  0AFF               	xorlw	255
  4646  00110C  1681               	andwf	129,f,c	;volatile
  4647  00110E  EF3B  F009         	goto	l42
  4648  001112                     l2230:
  4649  001112  BE02               	btfsc	(digitalWrite@pin+1)^0,7,c
  4650  001114  EF97  F008         	goto	u1740
  4651  001118  5002               	movf	(digitalWrite@pin+1)^0,w,c
  4652  00111A  E107               	bnz	u1741
  4653  00111C  0E18               	movlw	24
  4654  00111E  5C01               	subwf	digitalWrite@pin^0,w,c
  4655  001120  B0D8               	btfsc	status,0,c
  4656  001122  EF95  F008         	goto	u1741
  4657  001126  EF97  F008         	goto	u1740
  4658  00112A                     u1741:
  4659  00112A  EFC5  F008         	goto	l2238
  4660  00112E                     u1740:
  4661  00112E                     
  4662                           ;io.c: 24:         pin -=16;
  4663  00112E  0EF0               	movlw	240
  4664  001130  2601               	addwf	digitalWrite@pin^0,f,c
  4665  001132  0EFF               	movlw	255
  4666  001134  2202               	addwfc	(digitalWrite@pin+1)^0,f,c
  4667                           
  4668                           ;io.c: 25:         if (value){ ((PORTC) |= (1<<(pin)));}
  4669  001136  5003               	movf	digitalWrite@value^0,w,c
  4670  001138  1004               	iorwf	(digitalWrite@value+1)^0,w,c
  4671  00113A  B4D8               	btfsc	status,2,c
  4672  00113C  EFA2  F008         	goto	u1751
  4673  001140  EFA4  F008         	goto	u1750
  4674  001144                     u1751:
  4675  001144  EFB4  F008         	goto	l2236
  4676  001148                     u1750:
  4677  001148  C001  F005         	movff	digitalWrite@pin,??_digitalWrite
  4678  00114C  0E01               	movlw	1
  4679  00114E  6E06               	movwf	(??_digitalWrite+1)^0,c
  4680  001150  2A05               	incf	??_digitalWrite^0,f,c
  4681  001152  EFAD  F008         	goto	u1764
  4682  001156                     u1765:
  4683  001156  90D8               	bcf	status,0,c
  4684  001158  3606               	rlcf	(??_digitalWrite+1)^0,f,c
  4685  00115A                     u1764:
  4686  00115A  2E05               	decfsz	??_digitalWrite^0,f,c
  4687  00115C  EFAB  F008         	goto	u1765
  4688  001160  5006               	movf	(??_digitalWrite+1)^0,w,c
  4689  001162  1282               	iorwf	130,f,c	;volatile
  4690  001164  EF3B  F009         	goto	l42
  4691  001168                     l2236:
  4692  001168  C001  F005         	movff	digitalWrite@pin,??_digitalWrite
  4693  00116C  0E01               	movlw	1
  4694  00116E  6E06               	movwf	(??_digitalWrite+1)^0,c
  4695  001170  2A05               	incf	??_digitalWrite^0,f,c
  4696  001172  EFBD  F008         	goto	u1774
  4697  001176                     u1775:
  4698  001176  90D8               	bcf	status,0,c
  4699  001178  3606               	rlcf	(??_digitalWrite+1)^0,f,c
  4700  00117A                     u1774:
  4701  00117A  2E05               	decfsz	??_digitalWrite^0,f,c
  4702  00117C  EFBB  F008         	goto	u1775
  4703  001180  5006               	movf	(??_digitalWrite+1)^0,w,c
  4704  001182  0AFF               	xorlw	255
  4705  001184  1682               	andwf	130,f,c	;volatile
  4706  001186  EF3B  F009         	goto	l42
  4707  00118A                     l2238:
  4708  00118A  BE02               	btfsc	(digitalWrite@pin+1)^0,7,c
  4709  00118C  EFD3  F008         	goto	u1780
  4710  001190  5002               	movf	(digitalWrite@pin+1)^0,w,c
  4711  001192  E107               	bnz	u1781
  4712  001194  0E20               	movlw	32
  4713  001196  5C01               	subwf	digitalWrite@pin^0,w,c
  4714  001198  B0D8               	btfsc	status,0,c
  4715  00119A  EFD1  F008         	goto	u1781
  4716  00119E  EFD3  F008         	goto	u1780
  4717  0011A2                     u1781:
  4718  0011A2  EF01  F009         	goto	l2246
  4719  0011A6                     u1780:
  4720  0011A6                     
  4721                           ;io.c: 28:         pin -=24;
  4722  0011A6  0EE8               	movlw	232
  4723  0011A8  2601               	addwf	digitalWrite@pin^0,f,c
  4724  0011AA  0EFF               	movlw	255
  4725  0011AC  2202               	addwfc	(digitalWrite@pin+1)^0,f,c
  4726                           
  4727                           ;io.c: 29:         if (value){ ((PORTD) |= (1<<(pin)));}
  4728  0011AE  5003               	movf	digitalWrite@value^0,w,c
  4729  0011B0  1004               	iorwf	(digitalWrite@value+1)^0,w,c
  4730  0011B2  B4D8               	btfsc	status,2,c
  4731  0011B4  EFDE  F008         	goto	u1791
  4732  0011B8  EFE0  F008         	goto	u1790
  4733  0011BC                     u1791:
  4734  0011BC  EFF0  F008         	goto	l2244
  4735  0011C0                     u1790:
  4736  0011C0  C001  F005         	movff	digitalWrite@pin,??_digitalWrite
  4737  0011C4  0E01               	movlw	1
  4738  0011C6  6E06               	movwf	(??_digitalWrite+1)^0,c
  4739  0011C8  2A05               	incf	??_digitalWrite^0,f,c
  4740  0011CA  EFE9  F008         	goto	u1804
  4741  0011CE                     u1805:
  4742  0011CE  90D8               	bcf	status,0,c
  4743  0011D0  3606               	rlcf	(??_digitalWrite+1)^0,f,c
  4744  0011D2                     u1804:
  4745  0011D2  2E05               	decfsz	??_digitalWrite^0,f,c
  4746  0011D4  EFE7  F008         	goto	u1805
  4747  0011D8  5006               	movf	(??_digitalWrite+1)^0,w,c
  4748  0011DA  1283               	iorwf	131,f,c	;volatile
  4749  0011DC  EF3B  F009         	goto	l42
  4750  0011E0                     l2244:
  4751  0011E0  C001  F005         	movff	digitalWrite@pin,??_digitalWrite
  4752  0011E4  0E01               	movlw	1
  4753  0011E6  6E06               	movwf	(??_digitalWrite+1)^0,c
  4754  0011E8  2A05               	incf	??_digitalWrite^0,f,c
  4755  0011EA  EFF9  F008         	goto	u1814
  4756  0011EE                     u1815:
  4757  0011EE  90D8               	bcf	status,0,c
  4758  0011F0  3606               	rlcf	(??_digitalWrite+1)^0,f,c
  4759  0011F2                     u1814:
  4760  0011F2  2E05               	decfsz	??_digitalWrite^0,f,c
  4761  0011F4  EFF7  F008         	goto	u1815
  4762  0011F8  5006               	movf	(??_digitalWrite+1)^0,w,c
  4763  0011FA  0AFF               	xorlw	255
  4764  0011FC  1683               	andwf	131,f,c	;volatile
  4765  0011FE  EF3B  F009         	goto	l42
  4766  001202                     l2246:
  4767  001202  BE02               	btfsc	(digitalWrite@pin+1)^0,7,c
  4768  001204  EF0F  F009         	goto	u1820
  4769  001208  5002               	movf	(digitalWrite@pin+1)^0,w,c
  4770  00120A  E107               	bnz	u1821
  4771  00120C  0E28               	movlw	40
  4772  00120E  5C01               	subwf	digitalWrite@pin^0,w,c
  4773  001210  B0D8               	btfsc	status,0,c
  4774  001212  EF0D  F009         	goto	u1821
  4775  001216  EF0F  F009         	goto	u1820
  4776  00121A                     u1821:
  4777  00121A  EF3B  F009         	goto	l42
  4778  00121E                     u1820:
  4779  00121E                     
  4780                           ;io.c: 32:         pin -=32;
  4781  00121E  0EE0               	movlw	224
  4782  001220  2601               	addwf	digitalWrite@pin^0,f,c
  4783  001222  0EFF               	movlw	255
  4784  001224  2202               	addwfc	(digitalWrite@pin+1)^0,f,c
  4785                           
  4786                           ;io.c: 33:         if (value){ ((PORTE) |= (1<<(pin)));}
  4787  001226  5003               	movf	digitalWrite@value^0,w,c
  4788  001228  1004               	iorwf	(digitalWrite@value+1)^0,w,c
  4789  00122A  B4D8               	btfsc	status,2,c
  4790  00122C  EF1A  F009         	goto	u1831
  4791  001230  EF1C  F009         	goto	u1830
  4792  001234                     u1831:
  4793  001234  EF2C  F009         	goto	l2252
  4794  001238                     u1830:
  4795  001238  C001  F005         	movff	digitalWrite@pin,??_digitalWrite
  4796  00123C  0E01               	movlw	1
  4797  00123E  6E06               	movwf	(??_digitalWrite+1)^0,c
  4798  001240  2A05               	incf	??_digitalWrite^0,f,c
  4799  001242  EF25  F009         	goto	u1844
  4800  001246                     u1845:
  4801  001246  90D8               	bcf	status,0,c
  4802  001248  3606               	rlcf	(??_digitalWrite+1)^0,f,c
  4803  00124A                     u1844:
  4804  00124A  2E05               	decfsz	??_digitalWrite^0,f,c
  4805  00124C  EF23  F009         	goto	u1845
  4806  001250  5006               	movf	(??_digitalWrite+1)^0,w,c
  4807  001252  1284               	iorwf	132,f,c	;volatile
  4808  001254  EF3B  F009         	goto	l42
  4809  001258                     l2252:
  4810  001258  C001  F005         	movff	digitalWrite@pin,??_digitalWrite
  4811  00125C  0E01               	movlw	1
  4812  00125E  6E06               	movwf	(??_digitalWrite+1)^0,c
  4813  001260  2A05               	incf	??_digitalWrite^0,f,c
  4814  001262  EF35  F009         	goto	u1854
  4815  001266                     u1855:
  4816  001266  90D8               	bcf	status,0,c
  4817  001268  3606               	rlcf	(??_digitalWrite+1)^0,f,c
  4818  00126A                     u1854:
  4819  00126A  2E05               	decfsz	??_digitalWrite^0,f,c
  4820  00126C  EF33  F009         	goto	u1855
  4821  001270  5006               	movf	(??_digitalWrite+1)^0,w,c
  4822  001272  0AFF               	xorlw	255
  4823  001274  1684               	andwf	132,f,c	;volatile
  4824  001276                     l42:
  4825  001276  0012               	return		;funcret
  4826  001278                     __end_of_digitalWrite:
  4827                           	callstack 0
  4828                           
  4829 ;; *************** function _Delay2ms *****************
  4830 ;; Defined at:
  4831 ;;		line 37 in file "lcd.c"
  4832 ;; Parameters:    Size  Location     Type
  4833 ;;		None
  4834 ;; Auto vars:     Size  Location     Type
  4835 ;;  i               1    1[COMRAM] unsigned char 
  4836 ;; Return value:  Size  Location     Type
  4837 ;;                  1    wreg      void 
  4838 ;; Registers used:
  4839 ;;		wreg, status,2, status,0, cstack
  4840 ;; Tracked objects:
  4841 ;;		On entry : 0/0
  4842 ;;		On exit  : 0/0
  4843 ;;		Unchanged: 0/0
  4844 ;; Data sizes:     COMRAM   BANK0   BANK1   BANK2   BANK3   BANK4   BANK5
  4845 ;;      Params:         0       0       0       0       0       0       0
  4846 ;;      Locals:         1       0       0       0       0       0       0
  4847 ;;      Temps:          0       0       0       0       0       0       0
  4848 ;;      Totals:         1       0       0       0       0       0       0
  4849 ;;Total ram usage:        1 bytes
  4850 ;; Hardware stack levels used: 1
  4851 ;; Hardware stack levels required when called: 1
  4852 ;; This function calls:
  4853 ;;		_Delay40us
  4854 ;; This function is called by:
  4855 ;;		_lcdCommand
  4856 ;;		_lcdInit
  4857 ;; This function uses a non-reentrant model
  4858 ;;
  4859                           
  4860                           	psect	text19
  4861  00252E                     __ptext19:
  4862                           	callstack 0
  4863  00252E                     _Delay2ms:
  4864                           	callstack 27
  4865  00252E                     
  4866                           ;lcd.c: 39:  unsigned char i;;lcd.c: 40:  for(i=0; i < 50; i++)
  4867  00252E  0E00               	movlw	0
  4868  002530  6E02               	movwf	Delay2ms@i^0,c
  4869  002532                     l2286:
  4870                           
  4871                           ;lcd.c: 41:  {;lcd.c: 42:   Delay40us();
  4872  002532  ECB2  F012         	call	_Delay40us	;wreg free
  4873  002536                     
  4874                           ;lcd.c: 43:  }
  4875  002536  2A02               	incf	Delay2ms@i^0,f,c
  4876  002538  0E31               	movlw	49
  4877  00253A  6402               	cpfsgt	Delay2ms@i^0,c
  4878  00253C  EFA2  F012         	goto	u1871
  4879  002540  EFA4  F012         	goto	u1870
  4880  002544                     u1871:
  4881  002544  EF99  F012         	goto	l2286
  4882  002548                     u1870:
  4883  002548  0012               	return		;funcret
  4884  00254A                     __end_of_Delay2ms:
  4885                           	callstack 0
  4886                           
  4887 ;; *************** function _Delay40us *****************
  4888 ;; Defined at:
  4889 ;;		line 31 in file "lcd.c"
  4890 ;; Parameters:    Size  Location     Type
  4891 ;;		None
  4892 ;; Auto vars:     Size  Location     Type
  4893 ;;  i               1    0[COMRAM] unsigned char 
  4894 ;; Return value:  Size  Location     Type
  4895 ;;                  1    wreg      void 
  4896 ;; Registers used:
  4897 ;;		wreg, status,2, status,0
  4898 ;; Tracked objects:
  4899 ;;		On entry : 0/0
  4900 ;;		On exit  : 0/0
  4901 ;;		Unchanged: 0/0
  4902 ;; Data sizes:     COMRAM   BANK0   BANK1   BANK2   BANK3   BANK4   BANK5
  4903 ;;      Params:         0       0       0       0       0       0       0
  4904 ;;      Locals:         1       0       0       0       0       0       0
  4905 ;;      Temps:          0       0       0       0       0       0       0
  4906 ;;      Totals:         1       0       0       0       0       0       0
  4907 ;;Total ram usage:        1 bytes
  4908 ;; Hardware stack levels used: 1
  4909 ;; This function calls:
  4910 ;;		Nothing
  4911 ;; This function is called by:
  4912 ;;		_Delay2ms
  4913 ;;		_lcdCommand
  4914 ;;		_lcdData
  4915 ;; This function uses a non-reentrant model
  4916 ;;
  4917                           
  4918                           	psect	text20
  4919  002564                     __ptext20:
  4920                           	callstack 0
  4921  002564                     _Delay40us:
  4922                           	callstack 28
  4923  002564                     
  4924                           ;lcd.c: 33:  unsigned char i;;lcd.c: 34:  for(i=0; i < 25; i++);
  4925  002564  0E00               	movlw	0
  4926  002566  6E01               	movwf	Delay40us@i^0,c
  4927  002568                     l2260:
  4928  002568  2A01               	incf	Delay40us@i^0,f,c
  4929  00256A  0E18               	movlw	24
  4930  00256C  6401               	cpfsgt	Delay40us@i^0,c
  4931  00256E  EFBB  F012         	goto	u1861
  4932  002572  EFBD  F012         	goto	u1860
  4933  002576                     u1861:
  4934  002576  EFB4  F012         	goto	l2260
  4935  00257A                     u1860:
  4936  00257A  0012               	return		;funcret
  4937  00257C                     __end_of_Delay40us:
  4938                           	callstack 0
  4939                           
  4940 ;; *************** function _kpRead *****************
  4941 ;; Defined at:
  4942 ;;		line 35 in file "keypad.c"
  4943 ;; Parameters:    Size  Location     Type
  4944 ;;		None
  4945 ;; Auto vars:     Size  Location     Type
  4946 ;;		None
  4947 ;; Return value:  Size  Location     Type
  4948 ;;                  2    0[COMRAM] unsigned int 
  4949 ;; Registers used:
  4950 ;;		None
  4951 ;; Tracked objects:
  4952 ;;		On entry : 0/0
  4953 ;;		On exit  : 0/0
  4954 ;;		Unchanged: 0/0
  4955 ;; Data sizes:     COMRAM   BANK0   BANK1   BANK2   BANK3   BANK4   BANK5
  4956 ;;      Params:         2       0       0       0       0       0       0
  4957 ;;      Locals:         0       0       0       0       0       0       0
  4958 ;;      Temps:          0       0       0       0       0       0       0
  4959 ;;      Totals:         2       0       0       0       0       0       0
  4960 ;;Total ram usage:        2 bytes
  4961 ;; Hardware stack levels used: 1
  4962 ;; This function calls:
  4963 ;;		Nothing
  4964 ;; This function is called by:
  4965 ;;		_main
  4966 ;; This function uses a non-reentrant model
  4967 ;;
  4968                           
  4969                           	psect	text21
  4970  00257C                     __ptext21:
  4971                           	callstack 0
  4972  00257C                     _kpRead:
  4973                           	callstack 30
  4974  00257C                     
  4975                           ;keypad.c: 36:     return valor;
  4976  00257C  C074  F001         	movff	_valor,?_kpRead
  4977  002580  C075  F002         	movff	_valor+1,?_kpRead+1
  4978  002584  0012               	return		;funcret
  4979  002586                     __end_of_kpRead:
  4980                           	callstack 0
  4981                           
  4982 ;; *************** function _kpInit *****************
  4983 ;; Defined at:
  4984 ;;		line 87 in file "keypad.c"
  4985 ;; Parameters:    Size  Location     Type
  4986 ;;		None
  4987 ;; Auto vars:     Size  Location     Type
  4988 ;;		None
  4989 ;; Return value:  Size  Location     Type
  4990 ;;                  1    wreg      void 
  4991 ;; Registers used:
  4992 ;;		wreg, status,2, status,0
  4993 ;; Tracked objects:
  4994 ;;		On entry : 0/0
  4995 ;;		On exit  : 0/0
  4996 ;;		Unchanged: 0/0
  4997 ;; Data sizes:     COMRAM   BANK0   BANK1   BANK2   BANK3   BANK4   BANK5
  4998 ;;      Params:         0       0       0       0       0       0       0
  4999 ;;      Locals:         0       0       0       0       0       0       0
  5000 ;;      Temps:          0       0       0       0       0       0       0
  5001 ;;      Totals:         0       0       0       0       0       0       0
  5002 ;;Total ram usage:        0 bytes
  5003 ;; Hardware stack levels used: 1
  5004 ;; This function calls:
  5005 ;;		Nothing
  5006 ;; This function is called by:
  5007 ;;		_main
  5008 ;; This function uses a non-reentrant model
  5009 ;;
  5010                           
  5011                           	psect	text22
  5012  002586                     __ptext22:
  5013                           	callstack 0
  5014  002586                     _kpInit:
  5015                           	callstack 30
  5016  002586                     
  5017                           ;keypad.c: 89:     TRISB &= 0x07;
  5018  002586  0E07               	movlw	7
  5019  002588  1693               	andwf	147,f,c	;volatile
  5020                           
  5021                           ;keypad.c: 91:     TRISD |= 0x0f;
  5022  00258A  0E0F               	movlw	15
  5023  00258C  1295               	iorwf	149,f,c	;volatile
  5024  00258E  0012               	return		;funcret
  5025  002590                     __end_of_kpInit:
  5026                           	callstack 0
  5027                           
  5028 ;; *************** function _kpDebounce *****************
  5029 ;; Defined at:
  5030 ;;		line 39 in file "keypad.c"
  5031 ;; Parameters:    Size  Location     Type
  5032 ;;		None
  5033 ;; Auto vars:     Size  Location     Type
  5034 ;;  k               2    6[COMRAM] int 
  5035 ;;  i               1    9[COMRAM] unsigned char 
  5036 ;;  j               1    8[COMRAM] unsigned char 
  5037 ;;  old_D           1    5[COMRAM] unsigned char 
  5038 ;; Return value:  Size  Location     Type
  5039 ;;                  1    wreg      void 
  5040 ;; Registers used:
  5041 ;;		wreg, status,2, status,0, prodl, prodh
  5042 ;; Tracked objects:
  5043 ;;		On entry : 0/0
  5044 ;;		On exit  : 0/0
  5045 ;;		Unchanged: 0/0
  5046 ;; Data sizes:     COMRAM   BANK0   BANK1   BANK2   BANK3   BANK4   BANK5
  5047 ;;      Params:         0       0       0       0       0       0       0
  5048 ;;      Locals:         5       0       0       0       0       0       0
  5049 ;;      Temps:          5       0       0       0       0       0       0
  5050 ;;      Totals:        10       0       0       0       0       0       0
  5051 ;;Total ram usage:       10 bytes
  5052 ;; Hardware stack levels used: 1
  5053 ;; This function calls:
  5054 ;;		Nothing
  5055 ;; This function is called by:
  5056 ;;		_main
  5057 ;; This function uses a non-reentrant model
  5058 ;;
  5059                           
  5060                           	psect	text23
  5061  00162A                     __ptext23:
  5062                           	callstack 0
  5063  00162A                     _kpDebounce:
  5064                           	callstack 30
  5065  00162A                     
  5066                           ;keypad.c: 40:     unsigned char i, j;;keypad.c: 41:     static unsigned char tempo;;key
      +                          pad.c: 42:     static unsigned int valorNovo = 0x0000;;keypad.c: 43:     static unsigned
      +                           int valorAntigo = 0x0000;;keypad.c: 46:     unsigned char old_D;;keypad.c: 47:     old_
      +                          D = PORTD;
  5067  00162A  CF83 F006          	movff	3971,kpDebounce@old_D	;volatile
  5068  00162E                     
  5069                           ;keypad.c: 51:     TRISD |= 0x0f;
  5070  00162E  0E0F               	movlw	15
  5071  001630  1295               	iorwf	149,f,c	;volatile
  5072  001632                     
  5073                           ;keypad.c: 53:     for (i = 0; i < 3; i++) {
  5074  001632  0E00               	movlw	0
  5075  001634  6E0A               	movwf	kpDebounce@i^0,c
  5076  001636                     l2484:
  5077                           
  5078                           ;keypad.c: 55:         TRISB &= 0xF8;
  5079  001636  0EF8               	movlw	248
  5080  001638  1693               	andwf	147,f,c	;volatile
  5081                           
  5082                           ;keypad.c: 57:         ((TRISB) |= (1<<(i)));
  5083  00163A  C00A  F001         	movff	kpDebounce@i,??_kpDebounce
  5084  00163E  0E01               	movlw	1
  5085  001640  6E02               	movwf	(??_kpDebounce+1)^0,c
  5086  001642  2A01               	incf	??_kpDebounce^0,f,c
  5087  001644  EF26  F00B         	goto	u2234
  5088  001648                     u2235:
  5089  001648  90D8               	bcf	status,0,c
  5090  00164A  3602               	rlcf	(??_kpDebounce+1)^0,f,c
  5091  00164C                     u2234:
  5092  00164C  2E01               	decfsz	??_kpDebounce^0,f,c
  5093  00164E  EF24  F00B         	goto	u2235
  5094  001652  5002               	movf	(??_kpDebounce+1)^0,w,c
  5095  001654  1293               	iorwf	147,f,c	;volatile
  5096                           
  5097                           ;keypad.c: 59:         PORTB |= 0x07;
  5098  001656  0E07               	movlw	7
  5099  001658  1281               	iorwf	129,f,c	;volatile
  5100                           
  5101                           ;keypad.c: 60:         ((PORTB) &= ~(1<<(i)));
  5102  00165A  C00A  F001         	movff	kpDebounce@i,??_kpDebounce
  5103  00165E  0E01               	movlw	1
  5104  001660  6E02               	movwf	(??_kpDebounce+1)^0,c
  5105  001662  2A01               	incf	??_kpDebounce^0,f,c
  5106  001664  EF36  F00B         	goto	u2244
  5107  001668                     u2245:
  5108  001668  90D8               	bcf	status,0,c
  5109  00166A  3602               	rlcf	(??_kpDebounce+1)^0,f,c
  5110  00166C                     u2244:
  5111  00166C  2E01               	decfsz	??_kpDebounce^0,f,c
  5112  00166E  EF34  F00B         	goto	u2245
  5113  001672  5002               	movf	(??_kpDebounce+1)^0,w,c
  5114  001674  0AFF               	xorlw	255
  5115  001676  1681               	andwf	129,f,c	;volatile
  5116  001678                     
  5117                           ;keypad.c: 63:         for (int k = 0; k < 10; k++);
  5118  001678  0E00               	movlw	0
  5119  00167A  6E08               	movwf	(kpDebounce@k+1)^0,c
  5120  00167C  0E00               	movlw	0
  5121  00167E  6E07               	movwf	kpDebounce@k^0,c
  5122  001680                     l2492:
  5123  001680  4A07               	infsnz	kpDebounce@k^0,f,c
  5124  001682  2A08               	incf	(kpDebounce@k+1)^0,f,c
  5125  001684  BE08               	btfsc	(kpDebounce@k+1)^0,7,c
  5126  001686  EF4E  F00B         	goto	u2251
  5127  00168A  5008               	movf	(kpDebounce@k+1)^0,w,c
  5128  00168C  E109               	bnz	u2250
  5129  00168E  0E0A               	movlw	10
  5130  001690  5C07               	subwf	kpDebounce@k^0,w,c
  5131  001692  A0D8               	btfss	status,0,c
  5132  001694  EF4E  F00B         	goto	u2251
  5133  001698  EF50  F00B         	goto	u2250
  5134  00169C                     u2251:
  5135  00169C  EF40  F00B         	goto	l2492
  5136  0016A0                     u2250:
  5137  0016A0                     
  5138                           ;keypad.c: 66:         for (j = 0; j < 4; j++) {
  5139  0016A0  0E00               	movlw	0
  5140  0016A2  6E09               	movwf	kpDebounce@j^0,c
  5141  0016A4                     l2502:
  5142                           
  5143                           ;keypad.c: 67:             if (!((PORTD) & (1<<(j)))) {
  5144  0016A4  C009  F001         	movff	kpDebounce@j,??_kpDebounce
  5145  0016A8  0E01               	movlw	1
  5146  0016AA  6E02               	movwf	(??_kpDebounce+1)^0,c
  5147  0016AC  2A01               	incf	??_kpDebounce^0,f,c
  5148  0016AE  EF5B  F00B         	goto	u2264
  5149  0016B2                     u2265:
  5150  0016B2  90D8               	bcf	status,0,c
  5151  0016B4  3602               	rlcf	(??_kpDebounce+1)^0,f,c
  5152  0016B6                     u2264:
  5153  0016B6  2E01               	decfsz	??_kpDebounce^0,f,c
  5154  0016B8  EF59  F00B         	goto	u2265
  5155  0016BC  5002               	movf	(??_kpDebounce+1)^0,w,c
  5156  0016BE  1483               	andwf	131,w,c	;volatile
  5157  0016C0  0900               	iorlw	0
  5158  0016C2  A4D8               	btfss	status,2,c
  5159  0016C4  EF66  F00B         	goto	u2271
  5160  0016C8  EF68  F00B         	goto	u2270
  5161  0016CC                     u2271:
  5162  0016CC  EF80  F00B         	goto	l2506
  5163  0016D0                     u2270:
  5164  0016D0                     
  5165                           ;keypad.c: 68:                 ((valorNovo) |= (1<<((i * 4) + j)));
  5166  0016D0  500A               	movf	kpDebounce@i^0,w,c
  5167  0016D2  0D04               	mullw	4
  5168  0016D4  50F3               	movf	243,w,c
  5169  0016D6  2409               	addwf	kpDebounce@j^0,w,c
  5170  0016D8  6E01               	movwf	??_kpDebounce^0,c
  5171  0016DA  0E01               	movlw	1
  5172  0016DC  6E02               	movwf	(??_kpDebounce+1)^0,c
  5173  0016DE  0E00               	movlw	0
  5174  0016E0  6E03               	movwf	(??_kpDebounce+2)^0,c
  5175  0016E2  2A01               	incf	??_kpDebounce^0,f,c
  5176  0016E4  EF77  F00B         	goto	u2284
  5177  0016E8                     u2285:
  5178  0016E8  90D8               	bcf	status,0,c
  5179  0016EA  3602               	rlcf	(??_kpDebounce+1)^0,f,c
  5180  0016EC  3603               	rlcf	(??_kpDebounce+2)^0,f,c
  5181  0016EE                     u2284:
  5182  0016EE  2E01               	decfsz	??_kpDebounce^0,f,c
  5183  0016F0  EF74  F00B         	goto	u2285
  5184  0016F4  5002               	movf	(??_kpDebounce+1)^0,w,c
  5185  0016F6  1272               	iorwf	kpDebounce@valorNovo^0,f,c
  5186  0016F8  5003               	movf	(??_kpDebounce+2)^0,w,c
  5187  0016FA  1273               	iorwf	(kpDebounce@valorNovo+1)^0,f,c
  5188                           
  5189                           ;keypad.c: 69:             } else {
  5190  0016FC  EF9A  F00B         	goto	l2508
  5191  001700                     l2506:
  5192                           
  5193                           ;keypad.c: 70:                 ((valorNovo) &= ~(1<<((i * 4) + j)));
  5194  001700  500A               	movf	kpDebounce@i^0,w,c
  5195  001702  0D04               	mullw	4
  5196  001704  50F3               	movf	243,w,c
  5197  001706  2409               	addwf	kpDebounce@j^0,w,c
  5198  001708  6E01               	movwf	??_kpDebounce^0,c
  5199  00170A  0E01               	movlw	1
  5200  00170C  6E02               	movwf	(??_kpDebounce+1)^0,c
  5201  00170E  0E00               	movlw	0
  5202  001710  6E03               	movwf	(??_kpDebounce+2)^0,c
  5203  001712  2A01               	incf	??_kpDebounce^0,f,c
  5204  001714  EF8F  F00B         	goto	u2294
  5205  001718                     u2295:
  5206  001718  90D8               	bcf	status,0,c
  5207  00171A  3602               	rlcf	(??_kpDebounce+1)^0,f,c
  5208  00171C  3603               	rlcf	(??_kpDebounce+2)^0,f,c
  5209  00171E                     u2294:
  5210  00171E  2E01               	decfsz	??_kpDebounce^0,f,c
  5211  001720  EF8C  F00B         	goto	u2295
  5212  001724  1C02               	comf	(??_kpDebounce+1)^0,w,c
  5213  001726  6E04               	movwf	(??_kpDebounce+3)^0,c
  5214  001728  1C03               	comf	(??_kpDebounce+2)^0,w,c
  5215  00172A  6E05               	movwf	(??_kpDebounce+4)^0,c
  5216  00172C  5004               	movf	(??_kpDebounce+3)^0,w,c
  5217  00172E  1672               	andwf	kpDebounce@valorNovo^0,f,c
  5218  001730  5005               	movf	(??_kpDebounce+4)^0,w,c
  5219  001732  1673               	andwf	(kpDebounce@valorNovo+1)^0,f,c
  5220  001734                     l2508:
  5221                           
  5222                           ;keypad.c: 72:         }
  5223  001734  2A09               	incf	kpDebounce@j^0,f,c
  5224  001736  0E03               	movlw	3
  5225  001738  6409               	cpfsgt	kpDebounce@j^0,c
  5226  00173A  EFA1  F00B         	goto	u2301
  5227  00173E  EFA3  F00B         	goto	u2300
  5228  001742                     u2301:
  5229  001742  EF52  F00B         	goto	l2502
  5230  001746                     u2300:
  5231  001746                     
  5232                           ;keypad.c: 73:     }
  5233  001746  2A0A               	incf	kpDebounce@i^0,f,c
  5234  001748  0E02               	movlw	2
  5235  00174A  640A               	cpfsgt	kpDebounce@i^0,c
  5236  00174C  EFAA  F00B         	goto	u2311
  5237  001750  EFAC  F00B         	goto	u2310
  5238  001754                     u2311:
  5239  001754  EF1B  F00B         	goto	l2484
  5240  001758                     u2310:
  5241  001758                     
  5242                           ;keypad.c: 74:     if (valorAntigo == valorNovo) {
  5243  001758  5072               	movf	kpDebounce@valorNovo^0,w,c
  5244  00175A  1870               	xorwf	kpDebounce@valorAntigo^0,w,c
  5245  00175C  E107               	bnz	u2321
  5246  00175E  5073               	movf	(kpDebounce@valorNovo+1)^0,w,c
  5247  001760  1871               	xorwf	(kpDebounce@valorAntigo+1)^0,w,c
  5248  001762  A4D8               	btfss	status,2,c
  5249  001764  EFB6  F00B         	goto	u2321
  5250  001768  EFB8  F00B         	goto	u2320
  5251  00176C                     u2321:
  5252  00176C  EFBB  F00B         	goto	l2520
  5253  001770                     u2320:
  5254  001770                     
  5255                           ;keypad.c: 75:         tempo--;
  5256  001770  067B               	decf	kpDebounce@tempo^0,f,c
  5257                           
  5258                           ;keypad.c: 76:     } else {
  5259  001772  EFC1  F00B         	goto	l107
  5260  001776                     l2520:
  5261                           
  5262                           ;keypad.c: 77:         tempo = 10;
  5263  001776  0E0A               	movlw	10
  5264  001778  6E7B               	movwf	kpDebounce@tempo^0,c
  5265  00177A                     
  5266                           ;keypad.c: 78:         valorAntigo = valorNovo;
  5267  00177A  C072  F070         	movff	kpDebounce@valorNovo,kpDebounce@valorAntigo
  5268  00177E  C073  F071         	movff	kpDebounce@valorNovo+1,kpDebounce@valorAntigo+1
  5269  001782                     l107:
  5270                           
  5271                           ;keypad.c: 80:     if (tempo == 0) {
  5272  001782  507B               	movf	kpDebounce@tempo^0,w,c
  5273  001784  A4D8               	btfss	status,2,c
  5274  001786  EFC7  F00B         	goto	u2331
  5275  00178A  EFC9  F00B         	goto	u2330
  5276  00178E                     u2331:
  5277  00178E  EFCD  F00B         	goto	l108
  5278  001792                     u2330:
  5279  001792                     
  5280                           ;keypad.c: 81:         valor = valorAntigo;
  5281  001792  C070  F074         	movff	kpDebounce@valorAntigo,_valor
  5282  001796  C071  F075         	movff	kpDebounce@valorAntigo+1,_valor+1
  5283  00179A                     l108:
  5284                           
  5285                           ;keypad.c: 83:     PORTD = old_D;
  5286  00179A  C006  FF83         	movff	kpDebounce@old_D,3971	;volatile
  5287  00179E                     
  5288                           ;keypad.c: 84:     TRISD = 0x00;
  5289  00179E  0E00               	movlw	0
  5290  0017A0  6E95               	movwf	149,c	;volatile
  5291  0017A2  0012               	return		;funcret
  5292  0017A4                     __end_of_kpDebounce:
  5293                           	callstack 0
  5294                           
  5295 ;; *************** function _funLed *****************
  5296 ;; Defined at:
  5297 ;;		line 178 in file "main.c"
  5298 ;; Parameters:    Size  Location     Type
  5299 ;;  fun             1    wreg     unsigned char 
  5300 ;; Auto vars:     Size  Location     Type
  5301 ;;  fun             1    2[COMRAM] unsigned char 
  5302 ;; Return value:  Size  Location     Type
  5303 ;;                  1    wreg      void 
  5304 ;; Registers used:
  5305 ;;		wreg, status,2, status,0
  5306 ;; Tracked objects:
  5307 ;;		On entry : 0/0
  5308 ;;		On exit  : 0/0
  5309 ;;		Unchanged: 0/0
  5310 ;; Data sizes:     COMRAM   BANK0   BANK1   BANK2   BANK3   BANK4   BANK5
  5311 ;;      Params:         0       0       0       0       0       0       0
  5312 ;;      Locals:         1       0       0       0       0       0       0
  5313 ;;      Temps:          2       0       0       0       0       0       0
  5314 ;;      Totals:         3       0       0       0       0       0       0
  5315 ;;Total ram usage:        3 bytes
  5316 ;; Hardware stack levels used: 1
  5317 ;; This function calls:
  5318 ;;		Nothing
  5319 ;; This function is called by:
  5320 ;;		_main
  5321 ;; This function uses a non-reentrant model
  5322 ;;
  5323                           
  5324                           	psect	text24
  5325  001C6E                     __ptext24:
  5326                           	callstack 0
  5327  001C6E                     _funLed:
  5328                           	callstack 30
  5329                           
  5330                           ;incstack = 0
  5331                           ;funLed@fun stored from wreg
  5332  001C6E  6E03               	movwf	funLed@fun^0,c
  5333  001C70                     
  5334                           ;main.c: 179:     TRISB = 0x00;
  5335  001C70  0E00               	movlw	0
  5336  001C72  6E93               	movwf	147,c	;volatile
  5337                           
  5338                           ;main.c: 180:     switch (fun) {
  5339  001C74  EF8C  F00E         	goto	l2610
  5340  001C78                     l2592:
  5341                           
  5342                           ;main.c: 182:             ((PORTB) |= (1<<(0)));
  5343  001C78  8081               	bsf	129,0,c	;volatile
  5344                           
  5345                           ;main.c: 183:             ((PORTB) |= (1<<(1)));
  5346  001C7A  8281               	bsf	129,1,c	;volatile
  5347                           
  5348                           ;main.c: 184:             ((PORTB) |= (1<<(2)));
  5349  001C7C  8481               	bsf	129,2,c	;volatile
  5350                           
  5351                           ;main.c: 185:             ((PORTB) |= (1<<(3)));
  5352  001C7E  8681               	bsf	129,3,c	;volatile
  5353                           
  5354                           ;main.c: 186:             ((PORTB) |= (1<<(4)));
  5355  001C80  8881               	bsf	129,4,c	;volatile
  5356                           
  5357                           ;main.c: 187:             ((PORTB) |= (1<<(5)));
  5358  001C82  8A81               	bsf	129,5,c	;volatile
  5359                           
  5360                           ;main.c: 188:             ((PORTB) |= (1<<(6)));
  5361  001C84  8C81               	bsf	129,6,c	;volatile
  5362                           
  5363                           ;main.c: 189:             ((PORTB) |= (1<<(7)));
  5364  001C86  8E81               	bsf	129,7,c	;volatile
  5365                           
  5366                           ;main.c: 190:             break;
  5367  001C88  EFB9  F00E         	goto	l190
  5368  001C8C                     l2594:
  5369                           
  5370                           ;main.c: 193:             ((PORTB) &= ~(1<<(0)));
  5371  001C8C  9081               	bcf	129,0,c	;volatile
  5372                           
  5373                           ;main.c: 194:             ((PORTB) &= ~(1<<(1)));
  5374  001C8E  9281               	bcf	129,1,c	;volatile
  5375                           
  5376                           ;main.c: 195:             ((PORTB) |= (1<<(2)));
  5377  001C90  8481               	bsf	129,2,c	;volatile
  5378                           
  5379                           ;main.c: 196:             ((PORTB) |= (1<<(3)));
  5380  001C92  8681               	bsf	129,3,c	;volatile
  5381                           
  5382                           ;main.c: 197:             ((PORTB) |= (1<<(4)));
  5383  001C94  8881               	bsf	129,4,c	;volatile
  5384                           
  5385                           ;main.c: 198:             ((PORTB) |= (1<<(5)));
  5386  001C96  8A81               	bsf	129,5,c	;volatile
  5387                           
  5388                           ;main.c: 199:             ((PORTB) |= (1<<(6)));
  5389  001C98  8C81               	bsf	129,6,c	;volatile
  5390                           
  5391                           ;main.c: 200:             ((PORTB) |= (1<<(7)));
  5392  001C9A  8E81               	bsf	129,7,c	;volatile
  5393                           
  5394                           ;main.c: 201:             break;
  5395  001C9C  EFB9  F00E         	goto	l190
  5396  001CA0                     l2596:
  5397                           
  5398                           ;main.c: 204:             ((PORTB) &= ~(1<<(0)));
  5399  001CA0  9081               	bcf	129,0,c	;volatile
  5400                           
  5401                           ;main.c: 205:             ((PORTB) &= ~(1<<(1)));
  5402  001CA2  9281               	bcf	129,1,c	;volatile
  5403                           
  5404                           ;main.c: 206:             ((PORTB) &= ~(1<<(2)));
  5405  001CA4  9481               	bcf	129,2,c	;volatile
  5406                           
  5407                           ;main.c: 207:             ((PORTB) |= (1<<(3)));
  5408  001CA6  8681               	bsf	129,3,c	;volatile
  5409                           
  5410                           ;main.c: 208:             ((PORTB) |= (1<<(4)));
  5411  001CA8  8881               	bsf	129,4,c	;volatile
  5412                           
  5413                           ;main.c: 209:             ((PORTB) |= (1<<(5)));
  5414  001CAA  8A81               	bsf	129,5,c	;volatile
  5415                           
  5416                           ;main.c: 210:             ((PORTB) |= (1<<(6)));
  5417  001CAC  8C81               	bsf	129,6,c	;volatile
  5418                           
  5419                           ;main.c: 211:             ((PORTB) |= (1<<(7)));
  5420  001CAE  8E81               	bsf	129,7,c	;volatile
  5421                           
  5422                           ;main.c: 212:             break;
  5423  001CB0  EFB9  F00E         	goto	l190
  5424  001CB4                     l2598:
  5425                           
  5426                           ;main.c: 215:             ((PORTB) &= ~(1<<(0)));
  5427  001CB4  9081               	bcf	129,0,c	;volatile
  5428                           
  5429                           ;main.c: 216:             ((PORTB) &= ~(1<<(1)));
  5430  001CB6  9281               	bcf	129,1,c	;volatile
  5431                           
  5432                           ;main.c: 217:             ((PORTB) &= ~(1<<(2)));
  5433  001CB8  9481               	bcf	129,2,c	;volatile
  5434                           
  5435                           ;main.c: 218:             ((PORTB) &= ~(1<<(3)));
  5436  001CBA  9681               	bcf	129,3,c	;volatile
  5437                           
  5438                           ;main.c: 219:             ((PORTB) |= (1<<(4)));
  5439  001CBC  8881               	bsf	129,4,c	;volatile
  5440                           
  5441                           ;main.c: 220:             ((PORTB) |= (1<<(5)));
  5442  001CBE  8A81               	bsf	129,5,c	;volatile
  5443                           
  5444                           ;main.c: 221:             ((PORTB) |= (1<<(6)));
  5445  001CC0  8C81               	bsf	129,6,c	;volatile
  5446                           
  5447                           ;main.c: 222:             ((PORTB) |= (1<<(7)));
  5448  001CC2  8E81               	bsf	129,7,c	;volatile
  5449                           
  5450                           ;main.c: 223:             break;
  5451  001CC4  EFB9  F00E         	goto	l190
  5452  001CC8                     l2600:
  5453                           
  5454                           ;main.c: 226:             ((PORTB) &= ~(1<<(0)));
  5455  001CC8  9081               	bcf	129,0,c	;volatile
  5456                           
  5457                           ;main.c: 227:             ((PORTB) &= ~(1<<(1)));
  5458  001CCA  9281               	bcf	129,1,c	;volatile
  5459                           
  5460                           ;main.c: 228:             ((PORTB) &= ~(1<<(2)));
  5461  001CCC  9481               	bcf	129,2,c	;volatile
  5462                           
  5463                           ;main.c: 229:             ((PORTB) &= ~(1<<(3)));
  5464  001CCE  9681               	bcf	129,3,c	;volatile
  5465                           
  5466                           ;main.c: 230:             ((PORTB) &= ~(1<<(4)));
  5467  001CD0  9881               	bcf	129,4,c	;volatile
  5468                           
  5469                           ;main.c: 231:             ((PORTB) |= (1<<(5)));
  5470  001CD2  8A81               	bsf	129,5,c	;volatile
  5471                           
  5472                           ;main.c: 232:             ((PORTB) |= (1<<(6)));
  5473  001CD4  8C81               	bsf	129,6,c	;volatile
  5474                           
  5475                           ;main.c: 233:             ((PORTB) |= (1<<(7)));
  5476  001CD6  8E81               	bsf	129,7,c	;volatile
  5477                           
  5478                           ;main.c: 234:             break;
  5479  001CD8  EFB9  F00E         	goto	l190
  5480  001CDC                     l2602:
  5481                           
  5482                           ;main.c: 237:             ((PORTB) &= ~(1<<(0)));
  5483  001CDC  9081               	bcf	129,0,c	;volatile
  5484                           
  5485                           ;main.c: 238:             ((PORTB) &= ~(1<<(1)));
  5486  001CDE  9281               	bcf	129,1,c	;volatile
  5487                           
  5488                           ;main.c: 239:             ((PORTB) &= ~(1<<(2)));
  5489  001CE0  9481               	bcf	129,2,c	;volatile
  5490                           
  5491                           ;main.c: 240:             ((PORTB) &= ~(1<<(3)));
  5492  001CE2  9681               	bcf	129,3,c	;volatile
  5493                           
  5494                           ;main.c: 241:             ((PORTB) &= ~(1<<(4)));
  5495  001CE4  9881               	bcf	129,4,c	;volatile
  5496                           
  5497                           ;main.c: 242:             ((PORTB) &= ~(1<<(5)));
  5498  001CE6  9A81               	bcf	129,5,c	;volatile
  5499                           
  5500                           ;main.c: 243:             ((PORTB) |= (1<<(6)));
  5501  001CE8  8C81               	bsf	129,6,c	;volatile
  5502                           
  5503                           ;main.c: 244:             ((PORTB) |= (1<<(7)));
  5504  001CEA  8E81               	bsf	129,7,c	;volatile
  5505                           
  5506                           ;main.c: 245:             break;
  5507  001CEC  EFB9  F00E         	goto	l190
  5508  001CF0                     l2604:
  5509                           
  5510                           ;main.c: 248:             ((PORTB) &= ~(1<<(0)));
  5511  001CF0  9081               	bcf	129,0,c	;volatile
  5512                           
  5513                           ;main.c: 249:             ((PORTB) &= ~(1<<(1)));
  5514  001CF2  9281               	bcf	129,1,c	;volatile
  5515                           
  5516                           ;main.c: 250:             ((PORTB) &= ~(1<<(2)));
  5517  001CF4  9481               	bcf	129,2,c	;volatile
  5518                           
  5519                           ;main.c: 251:             ((PORTB) &= ~(1<<(3)));
  5520  001CF6  9681               	bcf	129,3,c	;volatile
  5521                           
  5522                           ;main.c: 252:             ((PORTB) &= ~(1<<(4)));
  5523  001CF8  9881               	bcf	129,4,c	;volatile
  5524                           
  5525                           ;main.c: 253:             ((PORTB) &= ~(1<<(5)));
  5526  001CFA  9A81               	bcf	129,5,c	;volatile
  5527                           
  5528                           ;main.c: 254:             ((PORTB) &= ~(1<<(6)));
  5529  001CFC  9C81               	bcf	129,6,c	;volatile
  5530                           
  5531                           ;main.c: 255:             ((PORTB) |= (1<<(7)));
  5532  001CFE  8E81               	bsf	129,7,c	;volatile
  5533                           
  5534                           ;main.c: 256:             break;
  5535  001D00  EFB9  F00E         	goto	l190
  5536  001D04                     l2606:
  5537                           
  5538                           ;main.c: 259:             ((PORTB) &= ~(1<<(0)));
  5539  001D04  9081               	bcf	129,0,c	;volatile
  5540                           
  5541                           ;main.c: 260:             ((PORTB) &= ~(1<<(1)));
  5542  001D06  9281               	bcf	129,1,c	;volatile
  5543                           
  5544                           ;main.c: 261:             ((PORTB) &= ~(1<<(2)));
  5545  001D08  9481               	bcf	129,2,c	;volatile
  5546                           
  5547                           ;main.c: 262:             ((PORTB) &= ~(1<<(3)));
  5548  001D0A  9681               	bcf	129,3,c	;volatile
  5549                           
  5550                           ;main.c: 263:             ((PORTB) &= ~(1<<(4)));
  5551  001D0C  9881               	bcf	129,4,c	;volatile
  5552                           
  5553                           ;main.c: 264:             ((PORTB) &= ~(1<<(5)));
  5554  001D0E  9A81               	bcf	129,5,c	;volatile
  5555                           
  5556                           ;main.c: 265:             ((PORTB) &= ~(1<<(6)));
  5557  001D10  9C81               	bcf	129,6,c	;volatile
  5558                           
  5559                           ;main.c: 266:             ((PORTB) &= ~(1<<(7)));
  5560  001D12  9E81               	bcf	129,7,c	;volatile
  5561                           
  5562                           ;main.c: 267:             break;
  5563  001D14  EFB9  F00E         	goto	l190
  5564  001D18                     l2610:
  5565  001D18  5003               	movf	funLed@fun^0,w,c
  5566  001D1A  6E01               	movwf	??_funLed^0,c
  5567  001D1C  6A02               	clrf	(??_funLed+1)^0,c
  5568                           
  5569                           ; Switch on 2 bytes has been partitioned into a top level switch of size 1, and 1 sub-sw
      +                          itches
  5570                           ; Switch size 1, requested type "simple"
  5571                           ; Number of cases is 1, Range of values is 0 to 0
  5572                           ; switch strategies available:
  5573                           ; Name         Instructions Cycles
  5574                           ; simple_byte            4     3 (average)
  5575                           ;	Chosen strategy is simple_byte
  5576  001D1E  5002               	movf	(??_funLed+1)^0,w,c
  5577  001D20  0A00               	xorlw	0	; case 0
  5578  001D22  B4D8               	btfsc	status,2,c
  5579  001D24  EF96  F00E         	goto	l3330
  5580  001D28  EFB9  F00E         	goto	l190
  5581  001D2C                     l3330:
  5582                           
  5583                           ; Switch size 1, requested type "simple"
  5584                           ; Number of cases is 8, Range of values is 48 to 55
  5585                           ; switch strategies available:
  5586                           ; Name         Instructions Cycles
  5587                           ; simple_byte           25    13 (average)
  5588                           ;	Chosen strategy is simple_byte
  5589  001D2C  5001               	movf	??_funLed^0,w,c
  5590  001D2E  0A30               	xorlw	48	; case 48
  5591  001D30  B4D8               	btfsc	status,2,c
  5592  001D32  EF82  F00E         	goto	l2606
  5593  001D36  0A01               	xorlw	1	; case 49
  5594  001D38  B4D8               	btfsc	status,2,c
  5595  001D3A  EF78  F00E         	goto	l2604
  5596  001D3E  0A03               	xorlw	3	; case 50
  5597  001D40  B4D8               	btfsc	status,2,c
  5598  001D42  EF6E  F00E         	goto	l2602
  5599  001D46  0A01               	xorlw	1	; case 51
  5600  001D48  B4D8               	btfsc	status,2,c
  5601  001D4A  EF64  F00E         	goto	l2600
  5602  001D4E  0A07               	xorlw	7	; case 52
  5603  001D50  B4D8               	btfsc	status,2,c
  5604  001D52  EF5A  F00E         	goto	l2598
  5605  001D56  0A01               	xorlw	1	; case 53
  5606  001D58  B4D8               	btfsc	status,2,c
  5607  001D5A  EF50  F00E         	goto	l2596
  5608  001D5E  0A03               	xorlw	3	; case 54
  5609  001D60  B4D8               	btfsc	status,2,c
  5610  001D62  EF46  F00E         	goto	l2594
  5611  001D66  0A01               	xorlw	1	; case 55
  5612  001D68  B4D8               	btfsc	status,2,c
  5613  001D6A  EF3C  F00E         	goto	l2592
  5614  001D6E  EFB9  F00E         	goto	l190
  5615  001D72                     l190:
  5616  001D72  0012               	return		;funcret
  5617  001D74                     __end_of_funLed:
  5618                           	callstack 0
  5619                           
  5620 ;; *************** function _fomeLed *****************
  5621 ;; Defined at:
  5622 ;;		line 73 in file "main.c"
  5623 ;; Parameters:    Size  Location     Type
  5624 ;;  fome            1    wreg     unsigned char 
  5625 ;; Auto vars:     Size  Location     Type
  5626 ;;  fome            1    2[COMRAM] unsigned char 
  5627 ;; Return value:  Size  Location     Type
  5628 ;;                  1    wreg      void 
  5629 ;; Registers used:
  5630 ;;		wreg, status,2, status,0
  5631 ;; Tracked objects:
  5632 ;;		On entry : 0/0
  5633 ;;		On exit  : 0/0
  5634 ;;		Unchanged: 0/0
  5635 ;; Data sizes:     COMRAM   BANK0   BANK1   BANK2   BANK3   BANK4   BANK5
  5636 ;;      Params:         0       0       0       0       0       0       0
  5637 ;;      Locals:         1       0       0       0       0       0       0
  5638 ;;      Temps:          2       0       0       0       0       0       0
  5639 ;;      Totals:         3       0       0       0       0       0       0
  5640 ;;Total ram usage:        3 bytes
  5641 ;; Hardware stack levels used: 1
  5642 ;; This function calls:
  5643 ;;		Nothing
  5644 ;; This function is called by:
  5645 ;;		_main
  5646 ;; This function uses a non-reentrant model
  5647 ;;
  5648                           
  5649                           	psect	text25
  5650  001A40                     __ptext25:
  5651                           	callstack 0
  5652  001A40                     _fomeLed:
  5653                           	callstack 30
  5654                           
  5655                           ;incstack = 0
  5656                           ;fomeLed@fome stored from wreg
  5657  001A40  6E03               	movwf	fomeLed@fome^0,c
  5658  001A42                     
  5659                           ;main.c: 74:     TRISD = 0x00;
  5660  001A42  0E00               	movlw	0
  5661  001A44  6E95               	movwf	149,c	;volatile
  5662                           
  5663                           ;main.c: 75:     switch (fome) {
  5664  001A46  EF7F  F00D         	goto	l2584
  5665  001A4A                     l2564:
  5666                           
  5667                           ;main.c: 77:             ((PORTD) |= (1<<(0)));
  5668  001A4A  8083               	bsf	131,0,c	;volatile
  5669                           
  5670                           ;main.c: 78:             ((PORTD) |= (1<<(1)));
  5671  001A4C  8283               	bsf	131,1,c	;volatile
  5672                           
  5673                           ;main.c: 79:             ((PORTD) |= (1<<(2)));
  5674  001A4E  8483               	bsf	131,2,c	;volatile
  5675                           
  5676                           ;main.c: 80:             ((PORTD) |= (1<<(3)));
  5677  001A50  8683               	bsf	131,3,c	;volatile
  5678                           
  5679                           ;main.c: 81:             ((PORTD) |= (1<<(4)));
  5680  001A52  8883               	bsf	131,4,c	;volatile
  5681                           
  5682                           ;main.c: 82:             ((PORTD) |= (1<<(5)));
  5683  001A54  8A83               	bsf	131,5,c	;volatile
  5684                           
  5685                           ;main.c: 83:             ((PORTD) |= (1<<(6)));
  5686  001A56  8C83               	bsf	131,6,c	;volatile
  5687                           
  5688                           ;main.c: 84:             ((PORTD) |= (1<<(7)));
  5689  001A58  8E83               	bsf	131,7,c	;volatile
  5690                           
  5691                           ;main.c: 85:             break;
  5692  001A5A  EFB0  F00D         	goto	l177
  5693  001A5E                     l2566:
  5694                           
  5695                           ;main.c: 88:             ((PORTD) &= ~(1<<(0)));
  5696  001A5E  9083               	bcf	131,0,c	;volatile
  5697                           
  5698                           ;main.c: 89:             ((PORTD) |= (1<<(1)));
  5699  001A60  8283               	bsf	131,1,c	;volatile
  5700                           
  5701                           ;main.c: 90:             ((PORTD) |= (1<<(2)));
  5702  001A62  8483               	bsf	131,2,c	;volatile
  5703                           
  5704                           ;main.c: 91:             ((PORTD) |= (1<<(3)));
  5705  001A64  8683               	bsf	131,3,c	;volatile
  5706                           
  5707                           ;main.c: 92:             ((PORTD) |= (1<<(4)));
  5708  001A66  8883               	bsf	131,4,c	;volatile
  5709                           
  5710                           ;main.c: 93:             ((PORTD) |= (1<<(5)));
  5711  001A68  8A83               	bsf	131,5,c	;volatile
  5712                           
  5713                           ;main.c: 94:             ((PORTD) |= (1<<(6)));
  5714  001A6A  8C83               	bsf	131,6,c	;volatile
  5715                           
  5716                           ;main.c: 95:             ((PORTD) |= (1<<(7)));
  5717  001A6C  8E83               	bsf	131,7,c	;volatile
  5718                           
  5719                           ;main.c: 96:             break;
  5720  001A6E  EFB0  F00D         	goto	l177
  5721  001A72                     l2568:
  5722                           
  5723                           ;main.c: 99:             ((PORTD) &= ~(1<<(0)));
  5724  001A72  9083               	bcf	131,0,c	;volatile
  5725                           
  5726                           ;main.c: 100:             ((PORTD) &= ~(1<<(1)));
  5727  001A74  9283               	bcf	131,1,c	;volatile
  5728                           
  5729                           ;main.c: 101:             ((PORTD) |= (1<<(2)));
  5730  001A76  8483               	bsf	131,2,c	;volatile
  5731                           
  5732                           ;main.c: 102:             ((PORTD) |= (1<<(3)));
  5733  001A78  8683               	bsf	131,3,c	;volatile
  5734                           
  5735                           ;main.c: 103:             ((PORTD) |= (1<<(4)));
  5736  001A7A  8883               	bsf	131,4,c	;volatile
  5737                           
  5738                           ;main.c: 104:             ((PORTD) |= (1<<(5)));
  5739  001A7C  8A83               	bsf	131,5,c	;volatile
  5740                           
  5741                           ;main.c: 105:             ((PORTD) |= (1<<(6)));
  5742  001A7E  8C83               	bsf	131,6,c	;volatile
  5743                           
  5744                           ;main.c: 106:             ((PORTD) |= (1<<(7)));
  5745  001A80  8E83               	bsf	131,7,c	;volatile
  5746                           
  5747                           ;main.c: 107:             break;
  5748  001A82  EFB0  F00D         	goto	l177
  5749  001A86                     l2570:
  5750                           
  5751                           ;main.c: 110:             ((PORTD) &= ~(1<<(0)));
  5752  001A86  9083               	bcf	131,0,c	;volatile
  5753                           
  5754                           ;main.c: 111:             ((PORTD) &= ~(1<<(1)));
  5755  001A88  9283               	bcf	131,1,c	;volatile
  5756                           
  5757                           ;main.c: 112:             ((PORTD) &= ~(1<<(2)));
  5758  001A8A  9483               	bcf	131,2,c	;volatile
  5759                           
  5760                           ;main.c: 113:             ((PORTD) |= (1<<(3)));
  5761  001A8C  8683               	bsf	131,3,c	;volatile
  5762                           
  5763                           ;main.c: 114:             ((PORTD) |= (1<<(4)));
  5764  001A8E  8883               	bsf	131,4,c	;volatile
  5765                           
  5766                           ;main.c: 115:             ((PORTD) |= (1<<(5)));
  5767  001A90  8A83               	bsf	131,5,c	;volatile
  5768                           
  5769                           ;main.c: 116:             ((PORTD) |= (1<<(6)));
  5770  001A92  8C83               	bsf	131,6,c	;volatile
  5771                           
  5772                           ;main.c: 117:             ((PORTD) |= (1<<(7)));
  5773  001A94  8E83               	bsf	131,7,c	;volatile
  5774                           
  5775                           ;main.c: 118:             break;
  5776  001A96  EFB0  F00D         	goto	l177
  5777  001A9A                     l2572:
  5778                           
  5779                           ;main.c: 121:             ((PORTD) &= ~(1<<(0)));
  5780  001A9A  9083               	bcf	131,0,c	;volatile
  5781                           
  5782                           ;main.c: 122:             ((PORTD) &= ~(1<<(1)));
  5783  001A9C  9283               	bcf	131,1,c	;volatile
  5784                           
  5785                           ;main.c: 123:             ((PORTD) &= ~(1<<(2)));
  5786  001A9E  9483               	bcf	131,2,c	;volatile
  5787                           
  5788                           ;main.c: 124:             ((PORTD) &= ~(1<<(3)));
  5789  001AA0  9683               	bcf	131,3,c	;volatile
  5790                           
  5791                           ;main.c: 125:             ((PORTD) |= (1<<(4)));
  5792  001AA2  8883               	bsf	131,4,c	;volatile
  5793                           
  5794                           ;main.c: 126:             ((PORTD) |= (1<<(5)));
  5795  001AA4  8A83               	bsf	131,5,c	;volatile
  5796                           
  5797                           ;main.c: 127:             ((PORTD) |= (1<<(6)));
  5798  001AA6  8C83               	bsf	131,6,c	;volatile
  5799                           
  5800                           ;main.c: 128:             ((PORTD) |= (1<<(7)));
  5801  001AA8  8E83               	bsf	131,7,c	;volatile
  5802                           
  5803                           ;main.c: 129:             break;
  5804  001AAA  EFB0  F00D         	goto	l177
  5805  001AAE                     l2574:
  5806                           
  5807                           ;main.c: 132:             ((PORTD) &= ~(1<<(0)));
  5808  001AAE  9083               	bcf	131,0,c	;volatile
  5809                           
  5810                           ;main.c: 133:             ((PORTD) &= ~(1<<(1)));
  5811  001AB0  9283               	bcf	131,1,c	;volatile
  5812                           
  5813                           ;main.c: 134:             ((PORTD) &= ~(1<<(2)));
  5814  001AB2  9483               	bcf	131,2,c	;volatile
  5815                           
  5816                           ;main.c: 135:             ((PORTD) &= ~(1<<(3)));
  5817  001AB4  9683               	bcf	131,3,c	;volatile
  5818                           
  5819                           ;main.c: 136:             ((PORTD) &= ~(1<<(4)));
  5820  001AB6  9883               	bcf	131,4,c	;volatile
  5821                           
  5822                           ;main.c: 137:             ((PORTD) |= (1<<(5)));
  5823  001AB8  8A83               	bsf	131,5,c	;volatile
  5824                           
  5825                           ;main.c: 138:             ((PORTD) |= (1<<(6)));
  5826  001ABA  8C83               	bsf	131,6,c	;volatile
  5827                           
  5828                           ;main.c: 139:             ((PORTD) |= (1<<(7)));
  5829  001ABC  8E83               	bsf	131,7,c	;volatile
  5830                           
  5831                           ;main.c: 140:             break;
  5832  001ABE  EFB0  F00D         	goto	l177
  5833  001AC2                     l2576:
  5834                           
  5835                           ;main.c: 143:             ((PORTD) &= ~(1<<(0)));
  5836  001AC2  9083               	bcf	131,0,c	;volatile
  5837                           
  5838                           ;main.c: 144:             ((PORTD) &= ~(1<<(1)));
  5839  001AC4  9283               	bcf	131,1,c	;volatile
  5840                           
  5841                           ;main.c: 145:             ((PORTD) &= ~(1<<(2)));
  5842  001AC6  9483               	bcf	131,2,c	;volatile
  5843                           
  5844                           ;main.c: 146:             ((PORTD) &= ~(1<<(3)));
  5845  001AC8  9683               	bcf	131,3,c	;volatile
  5846                           
  5847                           ;main.c: 147:             ((PORTD) &= ~(1<<(4)));
  5848  001ACA  9883               	bcf	131,4,c	;volatile
  5849                           
  5850                           ;main.c: 148:             ((PORTD) &= ~(1<<(5)));
  5851  001ACC  9A83               	bcf	131,5,c	;volatile
  5852                           
  5853                           ;main.c: 149:             ((PORTD) |= (1<<(6)));
  5854  001ACE  8C83               	bsf	131,6,c	;volatile
  5855                           
  5856                           ;main.c: 150:             ((PORTD) |= (1<<(7)));
  5857  001AD0  8E83               	bsf	131,7,c	;volatile
  5858                           
  5859                           ;main.c: 151:             break;
  5860  001AD2  EFB0  F00D         	goto	l177
  5861  001AD6                     l2578:
  5862                           
  5863                           ;main.c: 154:             ((PORTD) &= ~(1<<(0)));
  5864  001AD6  9083               	bcf	131,0,c	;volatile
  5865                           
  5866                           ;main.c: 155:             ((PORTD) &= ~(1<<(1)));
  5867  001AD8  9283               	bcf	131,1,c	;volatile
  5868                           
  5869                           ;main.c: 156:             ((PORTD) &= ~(1<<(2)));
  5870  001ADA  9483               	bcf	131,2,c	;volatile
  5871                           
  5872                           ;main.c: 157:             ((PORTD) &= ~(1<<(3)));
  5873  001ADC  9683               	bcf	131,3,c	;volatile
  5874                           
  5875                           ;main.c: 158:             ((PORTD) &= ~(1<<(4)));
  5876  001ADE  9883               	bcf	131,4,c	;volatile
  5877                           
  5878                           ;main.c: 159:             ((PORTD) &= ~(1<<(5)));
  5879  001AE0  9A83               	bcf	131,5,c	;volatile
  5880                           
  5881                           ;main.c: 160:             ((PORTD) &= ~(1<<(6)));
  5882  001AE2  9C83               	bcf	131,6,c	;volatile
  5883                           
  5884                           ;main.c: 161:             ((PORTD) |= (1<<(7)));
  5885  001AE4  8E83               	bsf	131,7,c	;volatile
  5886                           
  5887                           ;main.c: 162:             break;
  5888  001AE6  EFB0  F00D         	goto	l177
  5889  001AEA                     l2580:
  5890                           
  5891                           ;main.c: 165:             ((PORTD) &= ~(1<<(0)));
  5892  001AEA  9083               	bcf	131,0,c	;volatile
  5893                           
  5894                           ;main.c: 166:             ((PORTD) &= ~(1<<(1)));
  5895  001AEC  9283               	bcf	131,1,c	;volatile
  5896                           
  5897                           ;main.c: 167:             ((PORTD) &= ~(1<<(2)));
  5898  001AEE  9483               	bcf	131,2,c	;volatile
  5899                           
  5900                           ;main.c: 168:             ((PORTD) &= ~(1<<(3)));
  5901  001AF0  9683               	bcf	131,3,c	;volatile
  5902                           
  5903                           ;main.c: 169:             ((PORTD) &= ~(1<<(4)));
  5904  001AF2  9883               	bcf	131,4,c	;volatile
  5905                           
  5906                           ;main.c: 170:             ((PORTD) &= ~(1<<(5)));
  5907  001AF4  9A83               	bcf	131,5,c	;volatile
  5908                           
  5909                           ;main.c: 171:             ((PORTD) &= ~(1<<(6)));
  5910  001AF6  9C83               	bcf	131,6,c	;volatile
  5911                           
  5912                           ;main.c: 172:             ((PORTD) &= ~(1<<(7)));
  5913  001AF8  9E83               	bcf	131,7,c	;volatile
  5914                           
  5915                           ;main.c: 173:             break;
  5916  001AFA  EFB0  F00D         	goto	l177
  5917  001AFE                     l2584:
  5918  001AFE  5003               	movf	fomeLed@fome^0,w,c
  5919  001B00  6E01               	movwf	??_fomeLed^0,c
  5920  001B02  6A02               	clrf	(??_fomeLed+1)^0,c
  5921                           
  5922                           ; Switch on 2 bytes has been partitioned into a top level switch of size 1, and 1 sub-sw
      +                          itches
  5923                           ; Switch size 1, requested type "simple"
  5924                           ; Number of cases is 1, Range of values is 0 to 0
  5925                           ; switch strategies available:
  5926                           ; Name         Instructions Cycles
  5927                           ; simple_byte            4     3 (average)
  5928                           ;	Chosen strategy is simple_byte
  5929  001B04  5002               	movf	(??_fomeLed+1)^0,w,c
  5930  001B06  0A00               	xorlw	0	; case 0
  5931  001B08  B4D8               	btfsc	status,2,c
  5932  001B0A  EF89  F00D         	goto	l3332
  5933  001B0E  EFB0  F00D         	goto	l177
  5934  001B12                     l3332:
  5935                           
  5936                           ; Switch size 1, requested type "simple"
  5937                           ; Number of cases is 9, Range of values is 48 to 56
  5938                           ; switch strategies available:
  5939                           ; Name         Instructions Cycles
  5940                           ; simple_byte           28    15 (average)
  5941                           ;	Chosen strategy is simple_byte
  5942  001B12  5001               	movf	??_fomeLed^0,w,c
  5943  001B14  0A30               	xorlw	48	; case 48
  5944  001B16  B4D8               	btfsc	status,2,c
  5945  001B18  EF75  F00D         	goto	l2580
  5946  001B1C  0A01               	xorlw	1	; case 49
  5947  001B1E  B4D8               	btfsc	status,2,c
  5948  001B20  EF6B  F00D         	goto	l2578
  5949  001B24  0A03               	xorlw	3	; case 50
  5950  001B26  B4D8               	btfsc	status,2,c
  5951  001B28  EF61  F00D         	goto	l2576
  5952  001B2C  0A01               	xorlw	1	; case 51
  5953  001B2E  B4D8               	btfsc	status,2,c
  5954  001B30  EF57  F00D         	goto	l2574
  5955  001B34  0A07               	xorlw	7	; case 52
  5956  001B36  B4D8               	btfsc	status,2,c
  5957  001B38  EF4D  F00D         	goto	l2572
  5958  001B3C  0A01               	xorlw	1	; case 53
  5959  001B3E  B4D8               	btfsc	status,2,c
  5960  001B40  EF43  F00D         	goto	l2570
  5961  001B44  0A03               	xorlw	3	; case 54
  5962  001B46  B4D8               	btfsc	status,2,c
  5963  001B48  EF39  F00D         	goto	l2568
  5964  001B4C  0A01               	xorlw	1	; case 55
  5965  001B4E  B4D8               	btfsc	status,2,c
  5966  001B50  EF2F  F00D         	goto	l2566
  5967  001B54  0A0F               	xorlw	15	; case 56
  5968  001B56  B4D8               	btfsc	status,2,c
  5969  001B58  EF25  F00D         	goto	l2564
  5970  001B5C  EFB0  F00D         	goto	l177
  5971  001B60                     l177:
  5972  001B60  0012               	return		;funcret
  5973  001B62                     __end_of_fomeLed:
  5974                           	callstack 0
  5975                           
  5976 ;; *************** function ___flge *****************
  5977 ;; Defined at:
  5978 ;;		line 4 in file "D:\MPLAB X IDE\XC8\pic\sources\c99\common\flge.c"
  5979 ;; Parameters:    Size  Location     Type
  5980 ;;  ff1             4    0[COMRAM] void 
  5981 ;;  ff2             4    4[COMRAM] void 
  5982 ;; Auto vars:     Size  Location     Type
  5983 ;;		None
  5984 ;; Return value:  Size  Location     Type
  5985 ;;		None               void
  5986 ;; Registers used:
  5987 ;;		wreg, status,2, status,0
  5988 ;; Tracked objects:
  5989 ;;		On entry : 0/0
  5990 ;;		On exit  : 0/0
  5991 ;;		Unchanged: 0/0
  5992 ;; Data sizes:     COMRAM   BANK0   BANK1   BANK2   BANK3   BANK4   BANK5
  5993 ;;      Params:         8       0       0       0       0       0       0
  5994 ;;      Locals:         0       0       0       0       0       0       0
  5995 ;;      Temps:          4       0       0       0       0       0       0
  5996 ;;      Totals:        12       0       0       0       0       0       0
  5997 ;;Total ram usage:       12 bytes
  5998 ;; Hardware stack levels used: 1
  5999 ;; This function calls:
  6000 ;;		Nothing
  6001 ;; This function is called by:
  6002 ;;		_main
  6003 ;; This function uses a non-reentrant model
  6004 ;;
  6005                           
  6006                           	psect	text26
  6007  001D74                     __ptext26:
  6008                           	callstack 0
  6009  001D74                     ___flge:
  6010                           	callstack 30
  6011  001D74  0E00               	movlw	0
  6012  001D76  1401               	andwf	___flge@ff1^0,w,c
  6013  001D78  6E09               	movwf	??___flge^0,c
  6014  001D7A  0E00               	movlw	0
  6015  001D7C  1402               	andwf	(___flge@ff1+1)^0,w,c
  6016  001D7E  6E0A               	movwf	(??___flge+1)^0,c
  6017  001D80  0E80               	movlw	128
  6018  001D82  1403               	andwf	(___flge@ff1+2)^0,w,c
  6019  001D84  6E0B               	movwf	(??___flge+2)^0,c
  6020  001D86  0E7F               	movlw	127
  6021  001D88  1404               	andwf	(___flge@ff1+3)^0,w,c
  6022  001D8A  6E0C               	movwf	(??___flge+3)^0,c
  6023  001D8C  5009               	movf	??___flge^0,w,c
  6024  001D8E  100A               	iorwf	(??___flge+1)^0,w,c
  6025  001D90  100B               	iorwf	(??___flge+2)^0,w,c
  6026  001D92  100C               	iorwf	(??___flge+3)^0,w,c
  6027  001D94  A4D8               	btfss	status,2,c
  6028  001D96  EFCF  F00E         	goto	u2981
  6029  001D9A  EFD1  F00E         	goto	u2980
  6030  001D9E                     u2981:
  6031  001D9E  EFD9  F00E         	goto	l3086
  6032  001DA2                     u2980:
  6033  001DA2  0E00               	movlw	0
  6034  001DA4  6E01               	movwf	___flge@ff1^0,c
  6035  001DA6  0E00               	movlw	0
  6036  001DA8  6E02               	movwf	(___flge@ff1+1)^0,c
  6037  001DAA  0E00               	movlw	0
  6038  001DAC  6E03               	movwf	(___flge@ff1+2)^0,c
  6039  001DAE  0E00               	movlw	0
  6040  001DB0  6E04               	movwf	(___flge@ff1+3)^0,c
  6041  001DB2                     l3086:
  6042  001DB2  0E00               	movlw	0
  6043  001DB4  1405               	andwf	___flge@ff2^0,w,c
  6044  001DB6  6E09               	movwf	??___flge^0,c
  6045  001DB8  0E00               	movlw	0
  6046  001DBA  1406               	andwf	(___flge@ff2+1)^0,w,c
  6047  001DBC  6E0A               	movwf	(??___flge+1)^0,c
  6048  001DBE  0E80               	movlw	128
  6049  001DC0  1407               	andwf	(___flge@ff2+2)^0,w,c
  6050  001DC2  6E0B               	movwf	(??___flge+2)^0,c
  6051  001DC4  0E7F               	movlw	127
  6052  001DC6  1408               	andwf	(___flge@ff2+3)^0,w,c
  6053  001DC8  6E0C               	movwf	(??___flge+3)^0,c
  6054  001DCA  5009               	movf	??___flge^0,w,c
  6055  001DCC  100A               	iorwf	(??___flge+1)^0,w,c
  6056  001DCE  100B               	iorwf	(??___flge+2)^0,w,c
  6057  001DD0  100C               	iorwf	(??___flge+3)^0,w,c
  6058  001DD2  A4D8               	btfss	status,2,c
  6059  001DD4  EFEE  F00E         	goto	u2991
  6060  001DD8  EFF0  F00E         	goto	u2990
  6061  001DDC                     u2991:
  6062  001DDC  EFF8  F00E         	goto	l3090
  6063  001DE0                     u2990:
  6064  001DE0  0E00               	movlw	0
  6065  001DE2  6E05               	movwf	___flge@ff2^0,c
  6066  001DE4  0E00               	movlw	0
  6067  001DE6  6E06               	movwf	(___flge@ff2+1)^0,c
  6068  001DE8  0E00               	movlw	0
  6069  001DEA  6E07               	movwf	(___flge@ff2+2)^0,c
  6070  001DEC  0E00               	movlw	0
  6071  001DEE  6E08               	movwf	(___flge@ff2+3)^0,c
  6072  001DF0                     l3090:
  6073  001DF0  AE04               	btfss	(___flge@ff1+3)^0,7,c
  6074  001DF2  EFFD  F00E         	goto	u3001
  6075  001DF6  EFFF  F00E         	goto	u3000
  6076  001DFA                     u3001:
  6077  001DFA  EF08  F00F         	goto	l3094
  6078  001DFE                     u3000:
  6079  001DFE  6C01               	negf	___flge@ff1^0,c
  6080  001E00  1E02               	comf	(___flge@ff1+1)^0,f,c
  6081  001E02  B0D8               	btfsc	status,0,c
  6082  001E04  2A02               	incf	(___flge@ff1+1)^0,f,c
  6083  001E06  1E03               	comf	(___flge@ff1+2)^0,f,c
  6084  001E08  B0D8               	btfsc	status,0,c
  6085  001E0A  2A03               	incf	(___flge@ff1+2)^0,f,c
  6086  001E0C  0E80               	movlw	128
  6087  001E0E  5604               	subfwb	(___flge@ff1+3)^0,f,c
  6088  001E10                     l3094:
  6089  001E10  AE08               	btfss	(___flge@ff2+3)^0,7,c
  6090  001E12  EF0D  F00F         	goto	u3011
  6091  001E16  EF0F  F00F         	goto	u3010
  6092  001E1A                     u3011:
  6093  001E1A  EF18  F00F         	goto	l636
  6094  001E1E                     u3010:
  6095  001E1E  6C05               	negf	___flge@ff2^0,c
  6096  001E20  1E06               	comf	(___flge@ff2+1)^0,f,c
  6097  001E22  B0D8               	btfsc	status,0,c
  6098  001E24  2A06               	incf	(___flge@ff2+1)^0,f,c
  6099  001E26  1E07               	comf	(___flge@ff2+2)^0,f,c
  6100  001E28  B0D8               	btfsc	status,0,c
  6101  001E2A  2A07               	incf	(___flge@ff2+2)^0,f,c
  6102  001E2C  0E80               	movlw	128
  6103  001E2E  5608               	subfwb	(___flge@ff2+3)^0,f,c
  6104  001E30                     l636:
  6105  001E30  0E00               	movlw	0
  6106  001E32  1A01               	xorwf	___flge@ff1^0,f,c
  6107  001E34  0E00               	movlw	0
  6108  001E36  1A02               	xorwf	(___flge@ff1+1)^0,f,c
  6109  001E38  0E00               	movlw	0
  6110  001E3A  1A03               	xorwf	(___flge@ff1+2)^0,f,c
  6111  001E3C  0E80               	movlw	128
  6112  001E3E  1A04               	xorwf	(___flge@ff1+3)^0,f,c
  6113  001E40  0E00               	movlw	0
  6114  001E42  1A05               	xorwf	___flge@ff2^0,f,c
  6115  001E44  0E00               	movlw	0
  6116  001E46  1A06               	xorwf	(___flge@ff2+1)^0,f,c
  6117  001E48  0E00               	movlw	0
  6118  001E4A  1A07               	xorwf	(___flge@ff2+2)^0,f,c
  6119  001E4C  0E80               	movlw	128
  6120  001E4E  1A08               	xorwf	(___flge@ff2+3)^0,f,c
  6121  001E50  5005               	movf	___flge@ff2^0,w,c
  6122  001E52  5C01               	subwf	___flge@ff1^0,w,c
  6123  001E54  5006               	movf	(___flge@ff2+1)^0,w,c
  6124  001E56  5802               	subwfb	(___flge@ff1+1)^0,w,c
  6125  001E58  5007               	movf	(___flge@ff2+2)^0,w,c
  6126  001E5A  5803               	subwfb	(___flge@ff1+2)^0,w,c
  6127  001E5C  5008               	movf	(___flge@ff2+3)^0,w,c
  6128  001E5E  5804               	subwfb	(___flge@ff1+3)^0,w,c
  6129  001E60  B0D8               	btfsc	status,0,c
  6130  001E62  EF35  F00F         	goto	u3021
  6131  001E66  EF37  F00F         	goto	u3020
  6132  001E6A                     u3021:
  6133  001E6A  EF3A  F00F         	goto	l3100
  6134  001E6E                     u3020:
  6135  001E6E  90D8               	bcf	status,0,c
  6136  001E70  EF3B  F00F         	goto	l641
  6137  001E74                     l3100:
  6138  001E74  80D8               	bsf	status,0,c
  6139  001E76                     l641:
  6140  001E76  0012               	return		;funcret
  6141  001E78                     __end_of___flge:
  6142                           	callstack 0
  6143                           
  6144 ;; *************** function ___fladd *****************
  6145 ;; Defined at:
  6146 ;;		line 10 in file "D:\MPLAB X IDE\XC8\pic\sources\c99\common\sprcadd.c"
  6147 ;; Parameters:    Size  Location     Type
  6148 ;;  b               4    0[COMRAM] void 
  6149 ;;  a               4    4[COMRAM] void 
  6150 ;; Auto vars:     Size  Location     Type
  6151 ;;  grs             1   15[COMRAM] unsigned char 
  6152 ;;  bexp            1   14[COMRAM] unsigned char 
  6153 ;;  aexp            1   13[COMRAM] unsigned char 
  6154 ;;  signs           1   12[COMRAM] unsigned char 
  6155 ;; Return value:  Size  Location     Type
  6156 ;;                  4    0[COMRAM] unsigned char 
  6157 ;; Registers used:
  6158 ;;		wreg, status,2, status,0
  6159 ;; Tracked objects:
  6160 ;;		On entry : 0/0
  6161 ;;		On exit  : 0/0
  6162 ;;		Unchanged: 0/0
  6163 ;; Data sizes:     COMRAM   BANK0   BANK1   BANK2   BANK3   BANK4   BANK5
  6164 ;;      Params:         8       0       0       0       0       0       0
  6165 ;;      Locals:         4       0       0       0       0       0       0
  6166 ;;      Temps:          4       0       0       0       0       0       0
  6167 ;;      Totals:        16       0       0       0       0       0       0
  6168 ;;Total ram usage:       16 bytes
  6169 ;; Hardware stack levels used: 1
  6170 ;; This function calls:
  6171 ;;		Nothing
  6172 ;; This function is called by:
  6173 ;;		_main
  6174 ;; This function uses a non-reentrant model
  6175 ;;
  6176                           
  6177                           	psect	text27
  6178  000630                     __ptext27:
  6179                           	callstack 0
  6180  000630                     ___fladd:
  6181                           	callstack 30
  6182  000630  5004               	movf	(___fladd@b+3)^0,w,c
  6183  000632  0B80               	andlw	128
  6184  000634  6E0D               	movwf	___fladd@signs^0,c
  6185  000636  5004               	movf	(___fladd@b+3)^0,w,c
  6186  000638  2404               	addwf	(___fladd@b+3)^0,w,c
  6187  00063A  6E0F               	movwf	___fladd@bexp^0,c
  6188  00063C  AE03               	btfss	(___fladd@b+2)^0,7,c
  6189  00063E  EF23  F003         	goto	u2591
  6190  000642  EF25  F003         	goto	u2590
  6191  000646                     u2591:
  6192  000646  EF26  F003         	goto	l2886
  6193  00064A                     u2590:
  6194  00064A  800F               	bsf	___fladd@bexp^0,0,c
  6195  00064C                     l2886:
  6196  00064C  500F               	movf	___fladd@bexp^0,w,c
  6197  00064E  B4D8               	btfsc	status,2,c
  6198  000650  EF2C  F003         	goto	u2601
  6199  000654  EF2E  F003         	goto	u2600
  6200  000658                     u2601:
  6201  000658  EF43  F003         	goto	l2896
  6202  00065C                     u2600:
  6203  00065C  280F               	incf	___fladd@bexp^0,w,c
  6204  00065E  A4D8               	btfss	status,2,c
  6205  000660  EF34  F003         	goto	u2611
  6206  000664  EF36  F003         	goto	u2610
  6207  000668                     u2611:
  6208  000668  EF3E  F003         	goto	l2892
  6209  00066C                     u2610:
  6210  00066C  0E00               	movlw	0
  6211  00066E  6E01               	movwf	___fladd@b^0,c
  6212  000670  0E00               	movlw	0
  6213  000672  6E02               	movwf	(___fladd@b+1)^0,c
  6214  000674  0E00               	movlw	0
  6215  000676  6E03               	movwf	(___fladd@b+2)^0,c
  6216  000678  0E00               	movlw	0
  6217  00067A  6E04               	movwf	(___fladd@b+3)^0,c
  6218  00067C                     l2892:
  6219  00067C  8E03               	bsf	(___fladd@b+2)^0,7,c
  6220  00067E  0E00               	movlw	0
  6221  000680  6E04               	movwf	(___fladd@b+3)^0,c
  6222  000682  EF4B  F003         	goto	l2898
  6223  000686                     l2896:
  6224  000686  0E00               	movlw	0
  6225  000688  6E01               	movwf	___fladd@b^0,c
  6226  00068A  0E00               	movlw	0
  6227  00068C  6E02               	movwf	(___fladd@b+1)^0,c
  6228  00068E  0E00               	movlw	0
  6229  000690  6E03               	movwf	(___fladd@b+2)^0,c
  6230  000692  0E00               	movlw	0
  6231  000694  6E04               	movwf	(___fladd@b+3)^0,c
  6232  000696                     l2898:
  6233  000696  5008               	movf	(___fladd@a+3)^0,w,c
  6234  000698  0B80               	andlw	128
  6235  00069A  6E0E               	movwf	___fladd@aexp^0,c
  6236  00069C  500D               	movf	___fladd@signs^0,w,c
  6237  00069E  180E               	xorwf	___fladd@aexp^0,w,c
  6238  0006A0  B4D8               	btfsc	status,2,c
  6239  0006A2  EF55  F003         	goto	u2621
  6240  0006A6  EF57  F003         	goto	u2620
  6241  0006AA                     u2621:
  6242  0006AA  EF58  F003         	goto	l2904
  6243  0006AE                     u2620:
  6244  0006AE  8C0D               	bsf	___fladd@signs^0,6,c
  6245  0006B0                     l2904:
  6246  0006B0  5008               	movf	(___fladd@a+3)^0,w,c
  6247  0006B2  2408               	addwf	(___fladd@a+3)^0,w,c
  6248  0006B4  6E0E               	movwf	___fladd@aexp^0,c
  6249  0006B6  AE07               	btfss	(___fladd@a+2)^0,7,c
  6250  0006B8  EF60  F003         	goto	u2631
  6251  0006BC  EF62  F003         	goto	u2630
  6252  0006C0                     u2631:
  6253  0006C0  EF63  F003         	goto	l2910
  6254  0006C4                     u2630:
  6255  0006C4  800E               	bsf	___fladd@aexp^0,0,c
  6256  0006C6                     l2910:
  6257  0006C6  500E               	movf	___fladd@aexp^0,w,c
  6258  0006C8  B4D8               	btfsc	status,2,c
  6259  0006CA  EF69  F003         	goto	u2641
  6260  0006CE  EF6B  F003         	goto	u2640
  6261  0006D2                     u2641:
  6262  0006D2  EF80  F003         	goto	l2920
  6263  0006D6                     u2640:
  6264  0006D6  280E               	incf	___fladd@aexp^0,w,c
  6265  0006D8  A4D8               	btfss	status,2,c
  6266  0006DA  EF71  F003         	goto	u2651
  6267  0006DE  EF73  F003         	goto	u2650
  6268  0006E2                     u2651:
  6269  0006E2  EF7B  F003         	goto	l2916
  6270  0006E6                     u2650:
  6271  0006E6  0E00               	movlw	0
  6272  0006E8  6E05               	movwf	___fladd@a^0,c
  6273  0006EA  0E00               	movlw	0
  6274  0006EC  6E06               	movwf	(___fladd@a+1)^0,c
  6275  0006EE  0E00               	movlw	0
  6276  0006F0  6E07               	movwf	(___fladd@a+2)^0,c
  6277  0006F2  0E00               	movlw	0
  6278  0006F4  6E08               	movwf	(___fladd@a+3)^0,c
  6279  0006F6                     l2916:
  6280  0006F6  8E07               	bsf	(___fladd@a+2)^0,7,c
  6281  0006F8  0E00               	movlw	0
  6282  0006FA  6E08               	movwf	(___fladd@a+3)^0,c
  6283  0006FC  EF88  F003         	goto	l2922
  6284  000700                     l2920:
  6285  000700  0E00               	movlw	0
  6286  000702  6E05               	movwf	___fladd@a^0,c
  6287  000704  0E00               	movlw	0
  6288  000706  6E06               	movwf	(___fladd@a+1)^0,c
  6289  000708  0E00               	movlw	0
  6290  00070A  6E07               	movwf	(___fladd@a+2)^0,c
  6291  00070C  0E00               	movlw	0
  6292  00070E  6E08               	movwf	(___fladd@a+3)^0,c
  6293  000710                     l2922:
  6294  000710  500F               	movf	___fladd@bexp^0,w,c
  6295  000712  5C0E               	subwf	___fladd@aexp^0,w,c
  6296  000714  B0D8               	btfsc	status,0,c
  6297  000716  EF8F  F003         	goto	u2661
  6298  00071A  EF91  F003         	goto	u2660
  6299  00071E                     u2661:
  6300  00071E  EFB8  F003         	goto	l2958
  6301  000722                     u2660:
  6302  000722  AC0D               	btfss	___fladd@signs^0,6,c
  6303  000724  EF96  F003         	goto	u2671
  6304  000728  EF98  F003         	goto	u2670
  6305  00072C                     u2671:
  6306  00072C  EF9A  F003         	goto	l2928
  6307  000730                     u2670:
  6308  000730  0E80               	movlw	128
  6309  000732  1A0D               	xorwf	___fladd@signs^0,f,c
  6310  000734                     l2928:
  6311  000734  C00F  F010         	movff	___fladd@bexp,___fladd@grs
  6312  000738  C00E  F00F         	movff	___fladd@aexp,___fladd@bexp
  6313  00073C  C010  F00E         	movff	___fladd@grs,___fladd@aexp
  6314  000740  C001  F010         	movff	___fladd@b,___fladd@grs
  6315  000744  C005  F001         	movff	___fladd@a,___fladd@b
  6316  000748  C010  F005         	movff	___fladd@grs,___fladd@a
  6317  00074C  C002  F010         	movff	___fladd@b+1,___fladd@grs
  6318  000750  C006  F002         	movff	___fladd@a+1,___fladd@b+1
  6319  000754  C010  F006         	movff	___fladd@grs,___fladd@a+1
  6320  000758  C003  F010         	movff	___fladd@b+2,___fladd@grs
  6321  00075C  C007  F003         	movff	___fladd@a+2,___fladd@b+2
  6322  000760  C010  F007         	movff	___fladd@grs,___fladd@a+2
  6323  000764  C004  F010         	movff	___fladd@b+3,___fladd@grs
  6324  000768  C008  F004         	movff	___fladd@a+3,___fladd@b+3
  6325  00076C  C010  F008         	movff	___fladd@grs,___fladd@a+3
  6326  000770                     l2958:
  6327  000770  0E00               	movlw	0
  6328  000772  6E10               	movwf	___fladd@grs^0,c
  6329  000774  500F               	movf	___fladd@bexp^0,w,c
  6330  000776  C00E  F009         	movff	___fladd@aexp,??___fladd
  6331  00077A  6A0A               	clrf	(??___fladd+1)^0,c
  6332  00077C  5E09               	subwf	??___fladd^0,f,c
  6333  00077E  0E00               	movlw	0
  6334  000780  5A0A               	subwfb	(??___fladd+1)^0,f,c
  6335  000782  BE0A               	btfsc	(??___fladd+1)^0,7,c
  6336  000784  EFCD  F003         	goto	u2681
  6337  000788  500A               	movf	(??___fladd+1)^0,w,c
  6338  00078A  E109               	bnz	u2680
  6339  00078C  0E1A               	movlw	26
  6340  00078E  5C09               	subwf	??___fladd^0,w,c
  6341  000790  A0D8               	btfss	status,0,c
  6342  000792  EFCD  F003         	goto	u2681
  6343  000796  EFCF  F003         	goto	u2680
  6344  00079A                     u2681:
  6345  00079A  EF06  F004         	goto	l900
  6346  00079E                     u2680:
  6347  00079E  5001               	movf	___fladd@b^0,w,c
  6348  0007A0  1002               	iorwf	(___fladd@b+1)^0,w,c
  6349  0007A2  1003               	iorwf	(___fladd@b+2)^0,w,c
  6350  0007A4  1004               	iorwf	(___fladd@b+3)^0,w,c
  6351  0007A6  A4D8               	btfss	status,2,c
  6352  0007A8  EFD8  F003         	goto	u2691
  6353  0007AC  EFDB  F003         	goto	u2690
  6354  0007B0                     u2691:
  6355  0007B0  0E01               	movlw	1
  6356  0007B2  EFDC  F003         	goto	u2700
  6357  0007B6                     u2690:
  6358  0007B6  0E00               	movlw	0
  6359  0007B8                     u2700:
  6360  0007B8  6E10               	movwf	___fladd@grs^0,c
  6361  0007BA  0E00               	movlw	0
  6362  0007BC  6E01               	movwf	___fladd@b^0,c
  6363  0007BE  0E00               	movlw	0
  6364  0007C0  6E02               	movwf	(___fladd@b+1)^0,c
  6365  0007C2  0E00               	movlw	0
  6366  0007C4  6E03               	movwf	(___fladd@b+2)^0,c
  6367  0007C6  0E00               	movlw	0
  6368  0007C8  6E04               	movwf	(___fladd@b+3)^0,c
  6369  0007CA  C00E  F00F         	movff	___fladd@aexp,___fladd@bexp
  6370  0007CE  EF0F  F004         	goto	l899
  6371  0007D2                     l901:
  6372  0007D2  A010               	btfss	___fladd@grs^0,0,c
  6373  0007D4  EFEE  F003         	goto	u2711
  6374  0007D8  EFF0  F003         	goto	u2710
  6375  0007DC                     u2711:
  6376  0007DC  EFF6  F003         	goto	l2970
  6377  0007E0                     u2710:
  6378  0007E0  90D8               	bcf	status,0,c
  6379  0007E2  3010               	rrcf	___fladd@grs^0,w,c
  6380  0007E4  0901               	iorlw	1
  6381  0007E6  6E10               	movwf	___fladd@grs^0,c
  6382  0007E8  EFF8  F003         	goto	l2972
  6383  0007EC                     l2970:
  6384  0007EC  90D8               	bcf	status,0,c
  6385  0007EE  3210               	rrcf	___fladd@grs^0,f,c
  6386  0007F0                     l2972:
  6387  0007F0  A001               	btfss	___fladd@b^0,0,c
  6388  0007F2  EFFD  F003         	goto	u2721
  6389  0007F6  EFFF  F003         	goto	u2720
  6390  0007FA                     u2721:
  6391  0007FA  EF00  F004         	goto	l2976
  6392  0007FE                     u2720:
  6393  0007FE  8E10               	bsf	___fladd@grs^0,7,c
  6394  000800                     l2976:
  6395  000800  3404               	rlcf	(___fladd@b+3)^0,w,c
  6396  000802  3204               	rrcf	(___fladd@b+3)^0,f,c
  6397  000804  3203               	rrcf	(___fladd@b+2)^0,f,c
  6398  000806  3202               	rrcf	(___fladd@b+1)^0,f,c
  6399  000808  3201               	rrcf	___fladd@b^0,f,c
  6400  00080A  2A0F               	incf	___fladd@bexp^0,f,c
  6401  00080C                     l900:
  6402  00080C  500E               	movf	___fladd@aexp^0,w,c
  6403  00080E  5C0F               	subwf	___fladd@bexp^0,w,c
  6404  000810  A0D8               	btfss	status,0,c
  6405  000812  EF0D  F004         	goto	u2731
  6406  000816  EF0F  F004         	goto	u2730
  6407  00081A                     u2731:
  6408  00081A  EFE9  F003         	goto	l901
  6409  00081E                     u2730:
  6410  00081E                     l899:
  6411  00081E  BC0D               	btfsc	___fladd@signs^0,6,c
  6412  000820  EF14  F004         	goto	u2741
  6413  000824  EF16  F004         	goto	u2740
  6414  000828                     u2741:
  6415  000828  EF56  F004         	goto	l3004
  6416  00082C                     u2740:
  6417  00082C  500F               	movf	___fladd@bexp^0,w,c
  6418  00082E  A4D8               	btfss	status,2,c
  6419  000830  EF1C  F004         	goto	u2751
  6420  000834  EF1E  F004         	goto	u2750
  6421  000838                     u2751:
  6422  000838  EF28  F004         	goto	l2986
  6423  00083C                     u2750:
  6424  00083C  0E00               	movlw	0
  6425  00083E  6E01               	movwf	?___fladd^0,c
  6426  000840  0E00               	movlw	0
  6427  000842  6E02               	movwf	(?___fladd+1)^0,c
  6428  000844  0E00               	movlw	0
  6429  000846  6E03               	movwf	(?___fladd+2)^0,c
  6430  000848  0E00               	movlw	0
  6431  00084A  6E04               	movwf	(?___fladd+3)^0,c
  6432  00084C  EF77  F005         	goto	l908
  6433  000850                     l2986:
  6434  000850  5005               	movf	___fladd@a^0,w,c
  6435  000852  2601               	addwf	___fladd@b^0,f,c
  6436  000854  5006               	movf	(___fladd@a+1)^0,w,c
  6437  000856  2202               	addwfc	(___fladd@b+1)^0,f,c
  6438  000858  5007               	movf	(___fladd@a+2)^0,w,c
  6439  00085A  2203               	addwfc	(___fladd@b+2)^0,f,c
  6440  00085C  5008               	movf	(___fladd@a+3)^0,w,c
  6441  00085E  2204               	addwfc	(___fladd@b+3)^0,f,c
  6442  000860  A004               	btfss	(___fladd@b+3)^0,0,c
  6443  000862  EF35  F004         	goto	u2761
  6444  000866  EF37  F004         	goto	u2760
  6445  00086A                     u2761:
  6446  00086A  EFE3  F004         	goto	l3040
  6447  00086E                     u2760:
  6448  00086E  A010               	btfss	___fladd@grs^0,0,c
  6449  000870  EF3C  F004         	goto	u2771
  6450  000874  EF3E  F004         	goto	u2770
  6451  000878                     u2771:
  6452  000878  EF44  F004         	goto	l2994
  6453  00087C                     u2770:
  6454  00087C  90D8               	bcf	status,0,c
  6455  00087E  3010               	rrcf	___fladd@grs^0,w,c
  6456  000880  0901               	iorlw	1
  6457  000882  6E10               	movwf	___fladd@grs^0,c
  6458  000884  EF46  F004         	goto	l2996
  6459  000888                     l2994:
  6460  000888  90D8               	bcf	status,0,c
  6461  00088A  3210               	rrcf	___fladd@grs^0,f,c
  6462  00088C                     l2996:
  6463  00088C  A001               	btfss	___fladd@b^0,0,c
  6464  00088E  EF4B  F004         	goto	u2781
  6465  000892  EF4D  F004         	goto	u2780
  6466  000896                     u2781:
  6467  000896  EF4E  F004         	goto	l3000
  6468  00089A                     u2780:
  6469  00089A  8E10               	bsf	___fladd@grs^0,7,c
  6470  00089C                     l3000:
  6471  00089C  3404               	rlcf	(___fladd@b+3)^0,w,c
  6472  00089E  3204               	rrcf	(___fladd@b+3)^0,f,c
  6473  0008A0  3203               	rrcf	(___fladd@b+2)^0,f,c
  6474  0008A2  3202               	rrcf	(___fladd@b+1)^0,f,c
  6475  0008A4  3201               	rrcf	___fladd@b^0,f,c
  6476  0008A6  2A0F               	incf	___fladd@bexp^0,f,c
  6477  0008A8  EFE3  F004         	goto	l3040
  6478  0008AC                     l3004:
  6479  0008AC  5005               	movf	___fladd@a^0,w,c
  6480  0008AE  5C01               	subwf	___fladd@b^0,w,c
  6481  0008B0  5006               	movf	(___fladd@a+1)^0,w,c
  6482  0008B2  5802               	subwfb	(___fladd@b+1)^0,w,c
  6483  0008B4  5007               	movf	(___fladd@a+2)^0,w,c
  6484  0008B6  5803               	subwfb	(___fladd@b+2)^0,w,c
  6485  0008B8  5004               	movf	(___fladd@b+3)^0,w,c
  6486  0008BA  0A80               	xorlw	128
  6487  0008BC  6E09               	movwf	??___fladd^0,c
  6488  0008BE  5008               	movf	(___fladd@a+3)^0,w,c
  6489  0008C0  0A80               	xorlw	128
  6490  0008C2  5809               	subwfb	??___fladd^0,w,c
  6491  0008C4  B0D8               	btfsc	status,0,c
  6492  0008C6  EF67  F004         	goto	u2791
  6493  0008CA  EF69  F004         	goto	u2790
  6494  0008CE                     u2791:
  6495  0008CE  EF94  F004         	goto	l3014
  6496  0008D2                     u2790:
  6497  0008D2  5001               	movf	___fladd@b^0,w,c
  6498  0008D4  5C05               	subwf	___fladd@a^0,w,c
  6499  0008D6  6E09               	movwf	??___fladd^0,c
  6500  0008D8  5002               	movf	(___fladd@b+1)^0,w,c
  6501  0008DA  5806               	subwfb	(___fladd@a+1)^0,w,c
  6502  0008DC  6E0A               	movwf	(??___fladd+1)^0,c
  6503  0008DE  5003               	movf	(___fladd@b+2)^0,w,c
  6504  0008E0  5807               	subwfb	(___fladd@a+2)^0,w,c
  6505  0008E2  6E0B               	movwf	(??___fladd+2)^0,c
  6506  0008E4  5004               	movf	(___fladd@b+3)^0,w,c
  6507  0008E6  5808               	subwfb	(___fladd@a+3)^0,w,c
  6508  0008E8  6E0C               	movwf	(??___fladd+3)^0,c
  6509  0008EA  0EFF               	movlw	255
  6510  0008EC  2409               	addwf	??___fladd^0,w,c
  6511  0008EE  6E01               	movwf	___fladd@b^0,c
  6512  0008F0  0EFF               	movlw	255
  6513  0008F2  200A               	addwfc	(??___fladd+1)^0,w,c
  6514  0008F4  6E02               	movwf	(___fladd@b+1)^0,c
  6515  0008F6  0EFF               	movlw	255
  6516  0008F8  200B               	addwfc	(??___fladd+2)^0,w,c
  6517  0008FA  6E03               	movwf	(___fladd@b+2)^0,c
  6518  0008FC  0EFF               	movlw	255
  6519  0008FE  200C               	addwfc	(??___fladd+3)^0,w,c
  6520  000900  6E04               	movwf	(___fladd@b+3)^0,c
  6521  000902  0E80               	movlw	128
  6522  000904  1A0D               	xorwf	___fladd@signs^0,f,c
  6523  000906  6C10               	negf	___fladd@grs^0,c
  6524  000908  5010               	movf	___fladd@grs^0,w,c
  6525  00090A  A4D8               	btfss	status,2,c
  6526  00090C  EF8A  F004         	goto	u2801
  6527  000910  EF8C  F004         	goto	u2800
  6528  000914                     u2801:
  6529  000914  EF9C  F004         	goto	l916
  6530  000918                     u2800:
  6531  000918  0E01               	movlw	1
  6532  00091A  2601               	addwf	___fladd@b^0,f,c
  6533  00091C  0E00               	movlw	0
  6534  00091E  2202               	addwfc	(___fladd@b+1)^0,f,c
  6535  000920  2203               	addwfc	(___fladd@b+2)^0,f,c
  6536  000922  2204               	addwfc	(___fladd@b+3)^0,f,c
  6537  000924  EF9C  F004         	goto	l916
  6538  000928                     l3014:
  6539  000928  5005               	movf	___fladd@a^0,w,c
  6540  00092A  5E01               	subwf	___fladd@b^0,f,c
  6541  00092C  5006               	movf	(___fladd@a+1)^0,w,c
  6542  00092E  5A02               	subwfb	(___fladd@b+1)^0,f,c
  6543  000930  5007               	movf	(___fladd@a+2)^0,w,c
  6544  000932  5A03               	subwfb	(___fladd@b+2)^0,f,c
  6545  000934  5008               	movf	(___fladd@a+3)^0,w,c
  6546  000936  5A04               	subwfb	(___fladd@b+3)^0,f,c
  6547  000938                     l916:
  6548  000938  5001               	movf	___fladd@b^0,w,c
  6549  00093A  1002               	iorwf	(___fladd@b+1)^0,w,c
  6550  00093C  1003               	iorwf	(___fladd@b+2)^0,w,c
  6551  00093E  1004               	iorwf	(___fladd@b+3)^0,w,c
  6552  000940  A4D8               	btfss	status,2,c
  6553  000942  EFA5  F004         	goto	u2811
  6554  000946  EFA7  F004         	goto	u2810
  6555  00094A                     u2811:
  6556  00094A  EFDC  F004         	goto	l3038
  6557  00094E                     u2810:
  6558  00094E  5010               	movf	___fladd@grs^0,w,c
  6559  000950  A4D8               	btfss	status,2,c
  6560  000952  EFAD  F004         	goto	u2821
  6561  000956  EFAF  F004         	goto	u2820
  6562  00095A                     u2821:
  6563  00095A  EFDC  F004         	goto	l3038
  6564  00095E                     u2820:
  6565  00095E  0E00               	movlw	0
  6566  000960  6E01               	movwf	?___fladd^0,c
  6567  000962  0E00               	movlw	0
  6568  000964  6E02               	movwf	(?___fladd+1)^0,c
  6569  000966  0E00               	movlw	0
  6570  000968  6E03               	movwf	(?___fladd+2)^0,c
  6571  00096A  0E00               	movlw	0
  6572  00096C  6E04               	movwf	(?___fladd+3)^0,c
  6573  00096E  EF77  F005         	goto	l908
  6574  000972                     l3022:
  6575  000972  90D8               	bcf	status,0,c
  6576  000974  3601               	rlcf	___fladd@b^0,f,c
  6577  000976  3602               	rlcf	(___fladd@b+1)^0,f,c
  6578  000978  3603               	rlcf	(___fladd@b+2)^0,f,c
  6579  00097A  3604               	rlcf	(___fladd@b+3)^0,f,c
  6580  00097C  AE10               	btfss	___fladd@grs^0,7,c
  6581  00097E  EFC3  F004         	goto	u2831
  6582  000982  EFC5  F004         	goto	u2830
  6583  000986                     u2831:
  6584  000986  EFC6  F004         	goto	l3028
  6585  00098A                     u2830:
  6586  00098A  8001               	bsf	___fladd@b^0,0,c
  6587  00098C                     l3028:
  6588  00098C  A010               	btfss	___fladd@grs^0,0,c
  6589  00098E  EFCB  F004         	goto	u2841
  6590  000992  EFCD  F004         	goto	u2840
  6591  000996                     u2841:
  6592  000996  EFD1  F004         	goto	l3032
  6593  00099A                     u2840:
  6594  00099A  80D8               	bsf	status,0,c
  6595  00099C  3610               	rlcf	___fladd@grs^0,f,c
  6596  00099E  EFD3  F004         	goto	l3034
  6597  0009A2                     l3032:
  6598  0009A2  90D8               	bcf	status,0,c
  6599  0009A4  3610               	rlcf	___fladd@grs^0,f,c
  6600  0009A6                     l3034:
  6601  0009A6  500F               	movf	___fladd@bexp^0,w,c
  6602  0009A8  B4D8               	btfsc	status,2,c
  6603  0009AA  EFD9  F004         	goto	u2851
  6604  0009AE  EFDB  F004         	goto	u2850
  6605  0009B2                     u2851:
  6606  0009B2  EFDC  F004         	goto	l3038
  6607  0009B6                     u2850:
  6608  0009B6  060F               	decf	___fladd@bexp^0,f,c
  6609  0009B8                     l3038:
  6610  0009B8  AE03               	btfss	(___fladd@b+2)^0,7,c
  6611  0009BA  EFE1  F004         	goto	u2861
  6612  0009BE  EFE3  F004         	goto	u2860
  6613  0009C2                     u2861:
  6614  0009C2  EFB9  F004         	goto	l3022
  6615  0009C6                     u2860:
  6616  0009C6                     l3040:
  6617  0009C6  0E00               	movlw	0
  6618  0009C8  6E0E               	movwf	___fladd@aexp^0,c
  6619  0009CA  AE10               	btfss	___fladd@grs^0,7,c
  6620  0009CC  EFEA  F004         	goto	u2871
  6621  0009D0  EFEC  F004         	goto	u2870
  6622  0009D4                     u2871:
  6623  0009D4  EF04  F005         	goto	l925
  6624  0009D8                     u2870:
  6625  0009D8  C010  F009         	movff	___fladd@grs,??___fladd
  6626  0009DC  0E7F               	movlw	127
  6627  0009DE  1609               	andwf	??___fladd^0,f,c
  6628  0009E0  B4D8               	btfsc	status,2,c
  6629  0009E2  EFF5  F004         	goto	u2881
  6630  0009E6  EFF7  F004         	goto	u2880
  6631  0009EA                     u2881:
  6632  0009EA  EFFB  F004         	goto	l926
  6633  0009EE                     u2880:
  6634  0009EE                     l3046:
  6635  0009EE  0E01               	movlw	1
  6636  0009F0  6E0E               	movwf	___fladd@aexp^0,c
  6637  0009F2  EF04  F005         	goto	l925
  6638  0009F6                     l926:
  6639  0009F6  A001               	btfss	___fladd@b^0,0,c
  6640  0009F8  EF00  F005         	goto	u2891
  6641  0009FC  EF02  F005         	goto	u2890
  6642  000A00                     u2891:
  6643  000A00  EF04  F005         	goto	l925
  6644  000A04                     u2890:
  6645  000A04  EFF7  F004         	goto	l3046
  6646  000A08                     l925:
  6647  000A08  500E               	movf	___fladd@aexp^0,w,c
  6648  000A0A  B4D8               	btfsc	status,2,c
  6649  000A0C  EF0A  F005         	goto	u2901
  6650  000A10  EF0C  F005         	goto	u2900
  6651  000A14                     u2901:
  6652  000A14  EF37  F005         	goto	l3058
  6653  000A18                     u2900:
  6654  000A18  0E01               	movlw	1
  6655  000A1A  2601               	addwf	___fladd@b^0,f,c
  6656  000A1C  0E00               	movlw	0
  6657  000A1E  2202               	addwfc	(___fladd@b+1)^0,f,c
  6658  000A20  2203               	addwfc	(___fladd@b+2)^0,f,c
  6659  000A22  2204               	addwfc	(___fladd@b+3)^0,f,c
  6660  000A24  A004               	btfss	(___fladd@b+3)^0,0,c
  6661  000A26  EF17  F005         	goto	u2911
  6662  000A2A  EF19  F005         	goto	u2910
  6663  000A2E                     u2911:
  6664  000A2E  EF37  F005         	goto	l3058
  6665  000A32                     u2910:
  6666  000A32  C001  F009         	movff	___fladd@b,??___fladd
  6667  000A36  C002  F00A         	movff	___fladd@b+1,??___fladd+1
  6668  000A3A  C003  F00B         	movff	___fladd@b+2,??___fladd+2
  6669  000A3E  C004  F00C         	movff	___fladd@b+3,??___fladd+3
  6670  000A42  340C               	rlcf	(??___fladd+3)^0,w,c
  6671  000A44  320C               	rrcf	(??___fladd+3)^0,f,c
  6672  000A46  320B               	rrcf	(??___fladd+2)^0,f,c
  6673  000A48  320A               	rrcf	(??___fladd+1)^0,f,c
  6674  000A4A  3209               	rrcf	??___fladd^0,f,c
  6675  000A4C  C009  F001         	movff	??___fladd,___fladd@b
  6676  000A50  C00A  F002         	movff	??___fladd+1,___fladd@b+1
  6677  000A54  C00B  F003         	movff	??___fladd+2,___fladd@b+2
  6678  000A58  C00C  F004         	movff	??___fladd+3,___fladd@b+3
  6679  000A5C  280F               	incf	___fladd@bexp^0,w,c
  6680  000A5E  B4D8               	btfsc	status,2,c
  6681  000A60  EF34  F005         	goto	u2921
  6682  000A64  EF36  F005         	goto	u2920
  6683  000A68                     u2921:
  6684  000A68  EF37  F005         	goto	l3058
  6685  000A6C                     u2920:
  6686  000A6C  2A0F               	incf	___fladd@bexp^0,f,c
  6687  000A6E                     l3058:
  6688  000A6E  280F               	incf	___fladd@bexp^0,w,c
  6689  000A70  B4D8               	btfsc	status,2,c
  6690  000A72  EF3D  F005         	goto	u2931
  6691  000A76  EF3F  F005         	goto	u2930
  6692  000A7A                     u2931:
  6693  000A7A  EF47  F005         	goto	l3062
  6694  000A7E                     u2930:
  6695  000A7E  500F               	movf	___fladd@bexp^0,w,c
  6696  000A80  A4D8               	btfss	status,2,c
  6697  000A82  EF45  F005         	goto	u2941
  6698  000A86  EF47  F005         	goto	u2940
  6699  000A8A                     u2941:
  6700  000A8A  EF59  F005         	goto	l3066
  6701  000A8E                     u2940:
  6702  000A8E                     l3062:
  6703  000A8E  0E00               	movlw	0
  6704  000A90  6E01               	movwf	___fladd@b^0,c
  6705  000A92  0E00               	movlw	0
  6706  000A94  6E02               	movwf	(___fladd@b+1)^0,c
  6707  000A96  0E00               	movlw	0
  6708  000A98  6E03               	movwf	(___fladd@b+2)^0,c
  6709  000A9A  0E00               	movlw	0
  6710  000A9C  6E04               	movwf	(___fladd@b+3)^0,c
  6711  000A9E  500F               	movf	___fladd@bexp^0,w,c
  6712  000AA0  A4D8               	btfss	status,2,c
  6713  000AA2  EF55  F005         	goto	u2951
  6714  000AA6  EF57  F005         	goto	u2950
  6715  000AAA                     u2951:
  6716  000AAA  EF59  F005         	goto	l3066
  6717  000AAE                     u2950:
  6718  000AAE  0E00               	movlw	0
  6719  000AB0  6E0D               	movwf	___fladd@signs^0,c
  6720  000AB2                     l3066:
  6721  000AB2  A00F               	btfss	___fladd@bexp^0,0,c
  6722  000AB4  EF5E  F005         	goto	u2961
  6723  000AB8  EF60  F005         	goto	u2960
  6724  000ABC                     u2961:
  6725  000ABC  EF63  F005         	goto	l3070
  6726  000AC0                     u2960:
  6727  000AC0  8E03               	bsf	(___fladd@b+2)^0,7,c
  6728  000AC2  EF64  F005         	goto	l3072
  6729  000AC6                     l3070:
  6730  000AC6  9E03               	bcf	(___fladd@b+2)^0,7,c
  6731  000AC8                     l3072:
  6732  000AC8  90D8               	bcf	status,0,c
  6733  000ACA  300F               	rrcf	___fladd@bexp^0,w,c
  6734  000ACC  6E04               	movwf	(___fladd@b+3)^0,c
  6735  000ACE  AE0D               	btfss	___fladd@signs^0,7,c
  6736  000AD0  EF6C  F005         	goto	u2971
  6737  000AD4  EF6E  F005         	goto	u2970
  6738  000AD8                     u2971:
  6739  000AD8  EF6F  F005         	goto	l3078
  6740  000ADC                     u2970:
  6741  000ADC  8E04               	bsf	(___fladd@b+3)^0,7,c
  6742  000ADE                     l3078:
  6743  000ADE  C001  F001         	movff	___fladd@b,?___fladd
  6744  000AE2  C002  F002         	movff	___fladd@b+1,?___fladd+1
  6745  000AE6  C003  F003         	movff	___fladd@b+2,?___fladd+2
  6746  000AEA  C004  F004         	movff	___fladd@b+3,?___fladd+3
  6747  000AEE                     l908:
  6748  000AEE  0012               	return		;funcret
  6749  000AF0                     __end_of___fladd:
  6750                           	callstack 0
  6751                           
  6752                           	psect	rparam
  6753  0000                     
  6754                           	psect	idloc
  6755                           
  6756                           ;Config register IDLOC0 @ 0x200000
  6757                           ;	unspecified, using default values
  6758  200000                     	org	2097152
  6759  200000  FF                 	db	255
  6760                           
  6761                           ;Config register IDLOC1 @ 0x200001
  6762                           ;	unspecified, using default values
  6763  200001                     	org	2097153
  6764  200001  FF                 	db	255
  6765                           
  6766                           ;Config register IDLOC2 @ 0x200002
  6767                           ;	unspecified, using default values
  6768  200002                     	org	2097154
  6769  200002  FF                 	db	255
  6770                           
  6771                           ;Config register IDLOC3 @ 0x200003
  6772                           ;	unspecified, using default values
  6773  200003                     	org	2097155
  6774  200003  FF                 	db	255
  6775                           
  6776                           ;Config register IDLOC4 @ 0x200004
  6777                           ;	unspecified, using default values
  6778  200004                     	org	2097156
  6779  200004  FF                 	db	255
  6780                           
  6781                           ;Config register IDLOC5 @ 0x200005
  6782                           ;	unspecified, using default values
  6783  200005                     	org	2097157
  6784  200005  FF                 	db	255
  6785                           
  6786                           ;Config register IDLOC6 @ 0x200006
  6787                           ;	unspecified, using default values
  6788  200006                     	org	2097158
  6789  200006  FF                 	db	255
  6790                           
  6791                           ;Config register IDLOC7 @ 0x200007
  6792                           ;	unspecified, using default values
  6793  200007                     	org	2097159
  6794  200007  FF                 	db	255
  6795                           
  6796                           	psect	config
  6797                           
  6798                           ; Padding undefined space
  6799  300000                     	org	3145728
  6800  300000  FF                 	db	255
  6801                           
  6802                           ;Config register CONFIG1H @ 0x300001
  6803                           ;	Oscillator Selection bits
  6804                           ;	OSC = HS, HS oscillator
  6805                           ;	Fail-Safe Clock Monitor Enable bit
  6806                           ;	FCMEN = OFF, Fail-Safe Clock Monitor disabled
  6807                           ;	Internal/External Oscillator Switchover bit
  6808                           ;	IESO = OFF, Oscillator Switchover mode disabled
  6809  300001                     	org	3145729
  6810  300001  02                 	db	2
  6811                           
  6812                           ;Config register CONFIG2L @ 0x300002
  6813                           ;	Power-up Timer Enable bit
  6814                           ;	PWRT = OFF, PWRT disabled
  6815                           ;	Brown-out Reset Enable bits
  6816                           ;	BOREN = OFF, Brown-out Reset disabled in hardware and software
  6817                           ;	Brown Out Reset Voltage bits
  6818                           ;	BORV = 0x2E, user specified literal
  6819  300002                     	org	3145730
  6820  300002  71                 	db	369
  6821                           
  6822                           ;Config register CONFIG2H @ 0x300003
  6823                           ;	Watchdog Timer Enable bit
  6824                           ;	WDT = OFF, WDT disabled (control is placed on the SWDTEN bit)
  6825                           ;	Watchdog Timer Postscale Select bits
  6826                           ;	WDTPS = 1, 1:1
  6827  300003                     	org	3145731
  6828  300003  00                 	db	0
  6829                           
  6830                           ; Padding undefined space
  6831  300004                     	org	3145732
  6832  300004  FF                 	db	255
  6833                           
  6834                           ;Config register CONFIG3H @ 0x300005
  6835                           ;	CCP2 MUX bit
  6836                           ;	CCP2MX = PORTC, CCP2 input/output is multiplexed with RC1
  6837                           ;	PORTB A/D Enable bit
  6838                           ;	PBADEN = ON, PORTB<4:0> pins are configured as analog input channels on Reset
  6839                           ;	Low-Power Timer1 Oscillator Enable bit
  6840                           ;	LPT1OSC = OFF, Timer1 configured for higher power operation
  6841                           ;	MCLR Pin Enable bit
  6842                           ;	MCLRE = ON, MCLR pin enabled; RE3 input pin disabled
  6843  300005                     	org	3145733
  6844  300005  83                 	db	131
  6845                           
  6846                           ;Config register CONFIG4L @ 0x300006
  6847                           ;	Stack Full/Underflow Reset Enable bit
  6848                           ;	STVREN = OFF, Stack full/underflow will not cause Reset
  6849                           ;	Single-Supply ICSP Enable bit
  6850                           ;	LVP = OFF, Single-Supply ICSP disabled
  6851                           ;	Extended Instruction Set Enable bit
  6852                           ;	XINST = OFF, Instruction set extension and Indexed Addressing mode disabled (Legacy mo
      +                          de)
  6853                           ;	Background Debugger Enable bit
  6854                           ;	DEBUG = OFF, Background debugger disabled, RB6 and RB7 configured as general purpose I
      +                          /O pins
  6855  300006                     	org	3145734
  6856  300006  80                 	db	128
  6857                           
  6858                           ; Padding undefined space
  6859  300007                     	org	3145735
  6860  300007  FF                 	db	255
  6861                           
  6862                           ;Config register CONFIG5L @ 0x300008
  6863                           ;	Code Protection bit
  6864                           ;	CP0 = OFF, Block 0 (000800-001FFFh) not code-protected
  6865                           ;	Code Protection bit
  6866                           ;	CP1 = OFF, Block 1 (002000-003FFFh) not code-protected
  6867                           ;	Code Protection bit
  6868                           ;	CP2 = OFF, Block 2 (004000-005FFFh) not code-protected
  6869                           ;	Code Protection bit
  6870                           ;	CP3 = OFF, Block 3 (006000-007FFFh) not code-protected
  6871  300008                     	org	3145736
  6872  300008  0F                 	db	15
  6873                           
  6874                           ;Config register CONFIG5H @ 0x300009
  6875                           ;	Boot Block Code Protection bit
  6876                           ;	CPB = OFF, Boot block (000000-0007FFh) not code-protected
  6877                           ;	Data EEPROM Code Protection bit
  6878                           ;	CPD = OFF, Data EEPROM not code-protected
  6879  300009                     	org	3145737
  6880  300009  C0                 	db	192
  6881                           
  6882                           ;Config register CONFIG6L @ 0x30000A
  6883                           ;	Write Protection bit
  6884                           ;	WRT0 = OFF, Block 0 (000800-001FFFh) not write-protected
  6885                           ;	Write Protection bit
  6886                           ;	WRT1 = OFF, Block 1 (002000-003FFFh) not write-protected
  6887                           ;	Write Protection bit
  6888                           ;	WRT2 = OFF, Block 2 (004000-005FFFh) not write-protected
  6889                           ;	Write Protection bit
  6890                           ;	WRT3 = OFF, Block 3 (006000-007FFFh) not write-protected
  6891  30000A                     	org	3145738
  6892  30000A  0F                 	db	15
  6893                           
  6894                           ;Config register CONFIG6H @ 0x30000B
  6895                           ;	Configuration Register Write Protection bit
  6896                           ;	WRTC = OFF, Configuration registers (300000-3000FFh) not write-protected
  6897                           ;	Boot Block Write Protection bit
  6898                           ;	WRTB = OFF, Boot block (000000-0007FFh) not write-protected
  6899                           ;	Data EEPROM Write Protection bit
  6900                           ;	WRTD = OFF, Data EEPROM not write-protected
  6901  30000B                     	org	3145739
  6902  30000B  E0                 	db	224
  6903                           
  6904                           ;Config register CONFIG7L @ 0x30000C
  6905                           ;	Table Read Protection bit
  6906                           ;	EBTR0 = OFF, Block 0 (000800-001FFFh) not protected from table reads executed in other
      +                           blocks
  6907                           ;	Table Read Protection bit
  6908                           ;	EBTR1 = OFF, Block 1 (002000-003FFFh) not protected from table reads executed in other
      +                           blocks
  6909                           ;	Table Read Protection bit
  6910                           ;	EBTR2 = OFF, Block 2 (004000-005FFFh) not protected from table reads executed in other
      +                           blocks
  6911                           ;	Table Read Protection bit
  6912                           ;	EBTR3 = OFF, Block 3 (006000-007FFFh) not protected from table reads executed in other
      +                           blocks
  6913  30000C                     	org	3145740
  6914  30000C  0F                 	db	15
  6915                           
  6916                           ;Config register CONFIG7H @ 0x30000D
  6917                           ;	Boot Block Table Read Protection bit
  6918                           ;	EBTRB = OFF, Boot block (000000-0007FFh) not protected from table reads executed in ot
      +                          her blocks
  6919  30000D                     	org	3145741
  6920  30000D  40                 	db	64
  6921                           tosu	equ	0xFFF
  6922                           tosh	equ	0xFFE
  6923                           tosl	equ	0xFFD
  6924                           stkptr	equ	0xFFC
  6925                           pclatu	equ	0xFFB
  6926                           pclath	equ	0xFFA
  6927                           pcl	equ	0xFF9
  6928                           tblptru	equ	0xFF8
  6929                           tblptrh	equ	0xFF7
  6930                           tblptrl	equ	0xFF6
  6931                           tablat	equ	0xFF5
  6932                           prodh	equ	0xFF4
  6933                           prodl	equ	0xFF3
  6934                           indf0	equ	0xFEF
  6935                           postinc0	equ	0xFEE
  6936                           postdec0	equ	0xFED
  6937                           preinc0	equ	0xFEC
  6938                           plusw0	equ	0xFEB
  6939                           fsr0h	equ	0xFEA
  6940                           fsr0l	equ	0xFE9
  6941                           wreg	equ	0xFE8
  6942                           indf1	equ	0xFE7
  6943                           postinc1	equ	0xFE6
  6944                           postdec1	equ	0xFE5
  6945                           preinc1	equ	0xFE4
  6946                           plusw1	equ	0xFE3
  6947                           fsr1h	equ	0xFE2
  6948                           fsr1l	equ	0xFE1
  6949                           bsr	equ	0xFE0
  6950                           indf2	equ	0xFDF
  6951                           postinc2	equ	0xFDE
  6952                           postdec2	equ	0xFDD
  6953                           preinc2	equ	0xFDC
  6954                           plusw2	equ	0xFDB
  6955                           fsr2h	equ	0xFDA
  6956                           fsr2l	equ	0xFD9
  6957                           status	equ	0xFD8

Data Sizes:
    Strings     30
    Constant    16
    Data        512
    BSS         12
    Persistent  0
    Stack       0

Auto Spaces:
    Space          Size  Autos    Used
    COMRAM          127    111     123
    BANK0           128     61     109
    BANK1           256    129     225
    BANK2           256      0     240
    BANK3           256      0     128
    BANK4           256      0       0
    BANK5           256      0       0

Pointer List with Targets:

    imprime@msg	PTR const unsigned char  size(2) Largest target is 17
		 -> STR_3(CODE[17]), STR_2(CODE[13]), STR_1(CODE[13]), 


Critical Paths under _main in COMRAM

    _main->_petFome
    _pwmInit->_pwmFrequency
    _pwmFrequency->___aldiv
    _petX->_imprime
    _imprime->_lcdData
    _petNao->_lcdCommand
    _petNao->_lcdData
    _petInicio->_lcdCommand
    _petInicio->_lcdData
    _petFun->_pwmSet
    _petFome->_pwmSet
    _pwmSet->___lwdiv
    _lcdData->_digitalWrite
    _lcdInit->_lcdCommand
    _lcdCommand->_digitalWrite
    _Delay2ms->_Delay40us

Critical Paths under _main in BANK0

    None.

Critical Paths under _main in BANK1

    _main->_petFun

Critical Paths under _main in BANK2

    None.

Critical Paths under _main in BANK3

    None.

Critical Paths under _main in BANK4

    None.

Critical Paths under _main in BANK5

    None.

Call Graph Tables:

 ---------------------------------------------------------------------------------
 (Depth) Function   	        Calls       Base Space   Used Autos Params    Refs
 ---------------------------------------------------------------------------------
 (0) _main                                                63    63      0   58224
                                            109 COMRAM     2     2      0
                                              0 BANK0     61    61      0
                            ___fladd
                             ___flge
                          _atraso_ms
                            _fomeLed
                             _funLed
                            _imprime
                         _kpDebounce
                             _kpInit
                             _kpRead
                         _lcdCommand
                            _lcdData
                            _lcdInit
                            _petFome
                             _petFun
                          _petInicio
                             _petNao
                               _petX
                            _pwmInit
 ---------------------------------------------------------------------------------
 (1) _pwmInit                                              0     0      0     550
                       _pwmFrequency
 ---------------------------------------------------------------------------------
 (2) _pwmFrequency                                         2     0      2     550
                                             14 COMRAM     2     0      2
                            ___aldiv
 ---------------------------------------------------------------------------------
 (3) ___aldiv                                             14     6      8     452
                                              0 COMRAM    14     6      8
 ---------------------------------------------------------------------------------
 (1) _petX                                                51    50      1   10099
                                             13 COMRAM    51    50      1
                          _atraso_ms
                            _imprime
                         _lcdCommand
                            _lcdData
 ---------------------------------------------------------------------------------
 (2) _imprime                                              5     3      2    2980
                                              8 COMRAM     5     3      2
                            _lcdData
 ---------------------------------------------------------------------------------
 (1) _petNao                                              97    97      0    7182
                                              8 COMRAM    97    97      0
                          _atraso_ms
                         _lcdCommand
                            _lcdData
 ---------------------------------------------------------------------------------
 (1) _petInicio                                           97    97      0    7000
                                              8 COMRAM    97    97      0
                          _atraso_ms
                         _lcdCommand
                            _lcdData
 ---------------------------------------------------------------------------------
 (1) _petFun                                             129   129      0    7762
                                              0 BANK1    129   129      0
                          _atraso_ms
                         _lcdCommand
                            _lcdData
                             _pwmSet
 ---------------------------------------------------------------------------------
 (1) _petFome                                             97    97      0    7762
                                             12 COMRAM    97    97      0
                          _atraso_ms
                         _lcdCommand
                            _lcdData
                             _pwmSet
 ---------------------------------------------------------------------------------
 (2) _pwmSet                                               5     5      0     716
                                              7 COMRAM     5     5      0
                            ___lwdiv
                             ___wmul
 ---------------------------------------------------------------------------------
 (3) ___wmul                                               6     2      4     311
                                              0 COMRAM     6     2      4
 ---------------------------------------------------------------------------------
 (3) ___lwdiv                                              7     3      4     314
                                              0 COMRAM     7     3      4
 ---------------------------------------------------------------------------------
 (2) _lcdData                                              2     2      0    2663
                                              6 COMRAM     2     2      0
                          _Delay40us
                       _digitalWrite
 ---------------------------------------------------------------------------------
 (2) _atraso_ms                                            6     4      2    1354
                                              0 COMRAM     6     4      2
 ---------------------------------------------------------------------------------
 (1) _lcdInit                                              0     0      0    4243
                           _Delay2ms
                         _lcdCommand
                            _pinMode
 ---------------------------------------------------------------------------------
 (2) _pinMode                                              6     2      4    1352
                                              0 COMRAM     6     2      4
 ---------------------------------------------------------------------------------
 (2) _lcdCommand                                           2     2      0    2799
                                              6 COMRAM     2     2      0
                           _Delay2ms
                          _Delay40us
                       _digitalWrite
 ---------------------------------------------------------------------------------
 (3) _digitalWrite                                         6     2      4    2572
                                              0 COMRAM     6     2      4
 ---------------------------------------------------------------------------------
 (3) _Delay2ms                                             1     1      0      92
                                              1 COMRAM     1     1      0
                          _Delay40us
 ---------------------------------------------------------------------------------
 (3) _Delay40us                                            1     1      0      46
                                              0 COMRAM     1     1      0
 ---------------------------------------------------------------------------------
 (1) _kpRead                                               2     0      2       0
                                              0 COMRAM     2     0      2
 ---------------------------------------------------------------------------------
 (1) _kpInit                                               0     0      0       0
 ---------------------------------------------------------------------------------
 (1) _kpDebounce                                          10    10      0     315
                                              0 COMRAM    10    10      0
 ---------------------------------------------------------------------------------
 (1) _funLed                                               3     3      0      22
                                              0 COMRAM     3     3      0
 ---------------------------------------------------------------------------------
 (1) _fomeLed                                              3     3      0      22
                                              0 COMRAM     3     3      0
 ---------------------------------------------------------------------------------
 (1) ___flge                                              12     4      8     486
                                              0 COMRAM    12     4      8
 ---------------------------------------------------------------------------------
 (1) ___fladd                                             16     8      8    2388
                                              0 COMRAM    16     8      8
 ---------------------------------------------------------------------------------
 Estimated maximum stack depth 3
 ---------------------------------------------------------------------------------

 Call Graph Graphs:

 _main (ROOT)
   ___fladd
   ___flge
   _atraso_ms
   _fomeLed
   _funLed
   _imprime
     _lcdData
       _Delay40us
       _digitalWrite
   _kpDebounce
   _kpInit
   _kpRead
   _lcdCommand
     _Delay2ms
       _Delay40us
     _Delay40us
     _digitalWrite
   _lcdData
   _lcdInit
     _Delay2ms
     _lcdCommand
     _pinMode
   _petFome
     _atraso_ms
     _lcdCommand
     _lcdData
     _pwmSet
       ___lwdiv
       ___wmul
   _petFun
     _atraso_ms
     _lcdCommand
     _lcdData
     _pwmSet
   _petInicio
     _atraso_ms
     _lcdCommand
     _lcdData
   _petNao
     _atraso_ms
     _lcdCommand
     _lcdData
   _petX
     _atraso_ms
     _imprime
     _lcdCommand
     _lcdData
   _pwmInit
     _pwmFrequency
       ___aldiv

 Address spaces:
Name               Size   Autos  Total    Cost      Usage
BIGRAM             5FF      0       0      17        0.0%
EEDATA             100      0       0       0        0.0%
BITBANK5           100      0       0      16        0.0%
BANK5              100      0       0      14        0.0%
BITBANK4           100      0       0      12        0.0%
BANK4              100      0       0      13        0.0%
BITBANK3           100      0       0      10        0.0%
BANK3              100      0      80      11       50.0%
BITBANK2           100      0       0       8        0.0%
BANK2              100      0      F0       9       93.8%
BITBANK1           100      0       0       6        0.0%
BANK1              100     81      E1       7       87.9%
BITBANK0            80      0       0       4        0.0%
BANK0               80     3D      6D       5       85.2%
BITCOMRAM           7F      0       0       0        0.0%
COMRAM              7F     6F      7B       1       96.9%
BITSFR               0      0       0     200        0.0%
SFR                  0      0       0     200        0.0%
STACK                0      0       0       2        0.0%
NULL                 0      0       0       0        0.0%
ABS                  0      0     339      15        0.0%
DATA                 0      0     339       3        0.0%
CODE                 0      0       0       0        0.0%


Microchip Technology PIC18 Macro Assembler V2.32 build 20210201212658 
Symbol Table                                                                                   Sun Aug 01 15:25:57 2021

                     l42 1276                       l76 1028                       l89 2584  
                     _v0 0079                       _v1 0078                       _v2 0077  
                     _v3 0076      ___wmul@multiplicand 0003                      l112 258E  
                    l122 23B0                      l107 1782                      l108 179A  
                    l109 17A2                      l205 1450                      l231 1A3E  
   petInicio@pet_deitado 0039                      l218 1902                      l331 257A  
                    l163 1F70                      l237 24B0                      l190 1D72  
                    l343 21F4                      l336 2548                      l248 1628  
                    l177 1B60                      l346 2464                      l362 234C  
                    l450 1C6C                      l371 252C                      l349 226C  
                    l365 2506                      l368 2562                      l641 1E76  
                    l900 080C                      l636 1E30                      l901 07D2  
                    l916 0938                      l908 0AEE                      l925 0A08  
                    l926 09F6                      l862 22D8                      l869 22E0  
                    l899 081E                      _PR2 000FCB                      wreg 000FE8  
                   l3000 089C                     l3010 0908                     l3002 08A6  
                   l3012 0918                     l3004 08AC                     l3100 1E74  
                   l2220 1078                     l2300 1B66                     l3030 099A  
                   l3022 0972                     l3006 08D2                     l3014 0928  
                   l2230 1112                     l2222 109A                     l2214 102A  
                   l2310 1BA6                     l2302 1B74                     l3110 0B10  
                   l3032 09A2                     l3024 097C                     l3016 094E  
                   l3008 0906                     l3040 09C6                     l2240 11A6  
                   l2232 112E                     l2224 10B6                     l2216 1046  
                   l2400 0FE2                     l2320 1BE4                     l2312 1BAA  
                   l2304 1B84                     l3200 0C6C                     l3112 0B16  
                   l3104 0AF0                     l3050 0A18                     l3042 09CA  
                   l3034 09A6                     l3026 098A                     l3018 095E  
                   l2250 1238                     l2242 11C0                     l2234 1148  
                   l2226 10D0                     l2218 1058                     l2402 1006  
                   l2330 1C2C                     l2322 1BF2                     l2314 1BBA  
                   l2306 1B88                     l3202 0C82                     l3130 0B44  
                   l3122 0B2E                     l3114 0B1C                     l3106 0AFA  
                   l3060 0A7E                     l3052 0A24                     l3044 09D8  
                   l3036 09B6                     l3028 098C                     l2260 2568  
                   l2252 1258                     l2244 11E0                     l2236 1168  
                   l2228 10F0                     l2412 2372                     l2404 234E  
                   l2332 1C36                     l2324 1BFC                     l2316 1BD0  
                   l2308 1B96                     l3220 0D6A                     l3212 0CD2  
                   l3204 0C84                     l3140 0B5C                     l3132 0B48  
                   l3116 0B28                     l3108 0B0C                     l3070 0AC6  
                   l3062 0A8E                     l3054 0A32                     l3046 09EE  
                   l3038 09B8                     l2510 1736                     l2502 16A4  
                   l2262 256A                     l2254 2564                     l2246 1202  
                   l2238 118A                     l2430 217A                     l2422 2390  
                   l2414 2376                     l2406 235A                     l2270 2430  
                   l2350 2298                     l2342 226E                     l2326 1C1A  
                   l2318 1BD8                     l2334 1C3C                     l3222 0D78  
                   l3230 0D98                     l3214 0D38                     l3206 0C8C  
                   l3150 0B94                     l3142 0B6E                     l3134 0B58  
                   l3072 0AC8                     l3064 0AAE                     l3056 0A6C  
                   l2600 1CC8                     l2520 1776                     l2512 1746  
                   l2504 16D0                     l2280 252E                     l2248 121E  
                   l2440 21AE                     l2432 217E                     l2408 235E  
                   l2272 2434                     l2264 2414                     l2360 22CC  
                   l2352 22A6                     l2344 2276                     l2336 1C4C  
                   l2328 1C2A                     l3232 0DA8                     l3224 0D8A  
                   l3240 0DC8                     l3216 0D3C                     l3208 0C9C  
                   l3160 0BA4                     l3152 0B9A                     l3144 0B72  
                   l3128 0B32                     l3074 0ACE                     l3066 0AB2  
                   l3058 0A6E                     l3090 1DF0                     l3082 1D74  
                   l3330 1D2C                     l2602 1CDC                     l2610 1D18  
                   l2522 177A                     l2514 1748                     l2506 1700  
                   l2290 2538                     l2450 21F0                     l2442 21C2  
                   l2434 2182                     l2370 0E2A                     l2418 238A  
                   l2426 2396                     l2274 2448                     l2266 2418  
                   l2362 22D2                     l2354 22AC                     l2346 2288  
                   l2530 1E78                     l2338 1C5C                     l3234 0DBA  
                   l3226 0D92                     l3218 0D60                     l3170 0BCE  
                   l3162 0BA8                     l3146 0B82                     l3076 0ADC  
                   l3068 0AC0                     l3092 1DFE                     l3084 1DA2  
                   l3332 1B12                     l2604 1CF0                     l2524 1792  
                   l2516 1758                     l2508 1734                     l2444 21C6  
                   l2436 2196                     l2380 0EC4                     l2372 0E4C  
                   l2364 0DDC                     l2428 239A                     l2276 245C  
                   l2268 241C                     l2356 22C2                     l2348 2290  
                   l2292 2508                     l2460 233E                     l2452 22E4  
                   l2700 1854                     l2540 1EA6                     l2532 1E9C  
                   l2620 12A2                     l3236 0DC2                     l3228 0D94  
                   l3180 0BEA                     l3172 0BD2                     l3164 0BB8  
                   l3148 0B84                     l3078 0ADE                     l3094 1E10  
                   l3086 1DB2                     l2606 1D04                     l2526 179E  
                   l2518 1770                     l2286 2532                     l2446 21D8  
                   l2438 219A                     l2390 0F58                     l2382 0EE0  
                   l2374 0E68                     l2366 0DF8                     l2278 2460  
                   l2358 22CA                     l2294 2524                     l2454 2302  
                   l2710 1870                     l2542 1EB8                     l2534 1EA2  
                   l2630 12BE                     l2622 12A8                     l2462 2466  
                   l2470 24E2                     l3238 0DC4                     l3190 0C0C  
                   l3174 0BD8                     l3166 0BC6                     l3158 0BA0  
                   l3096 1E1E                     l3088 1DE0                     l2528 2586  
                   l2472 257C                     l2288 2536                     l2448 21E8  
                   l2392 0F6A                     l2384 0EF2                     l2376 0E7A  
                   l2368 0E0A                     l2456 231E                     l2720 18D4  
                   l2712 1880                     l2560 1F34                     l2544 1EBA  
                   l2632 12C0                     l2616 1278                     l2464 246A  
                   l2800 14B2                     l3192 0C1C                     l3176 0BDC  
                   l3168 0BCA                     l3098 1E6E                     l2570 1A86  
                   l2562 1A42                     l2474 162A                     l2394 0F8E  
                   l2386 0F16                     l2378 0E9E                     l2458 2326  
                   l2730 1904                     l2722 18DC                     l2714 18CE  
                   l2706 185A                     l2554 1F10                     l2546 1ECA  
                   l2650 137C                     l2642 1316                     l2634 12D0  
                   l2618 129C                     l2466 2486                     l2802 14B4  
                   l2810 154A                     l2298 1B62                     l3194 0C4C  
                   l3186 0BF6                     l3178 0BE2                     l2900 069C  
                   l2580 1AEA                     l2572 1A9A                     l2564 1A4A  
                   l2492 1680                     l2484 1636                     l2476 162E  
                   l2396 0FB4                     l2388 0F3C                     l2732 1928  
                   l2724 18E8                     l2708 186C                     l2556 1F22  
                   l2548 1F0C                     l2660 1394                     l2644 1328  
                   l2636 1312                     l2628 12AC                     l2468 2488  
                   l2812 155C                     l2804 14C4                     l3196 0C62  
                   l3188 0C08                     l2910 06C6                     l2902 06AE  
                   l2574 1AAE                     l2566 1A5E                     l2590 1C70  
                   l2494 1684                     l2486 1678                     l2478 1632  
                   l2398 0FD0                     l2750 1962                     l2734 192E  
                   l2726 18EC                     l2558 1F24                     l2670 13EA  
                   l2662 13A4                     l2646 132A                     l2830 15A8  
                   l2814 156E                     l2806 153C                     l3198 0C64  
                   l2912 06D6                     l2920 0700                     l2904 06B0  
                   l2576 1AC2                     l2568 1A72                     l2584 1AFE  
                   l2592 1C78                     l2496 16A0                     l2840 2222  
                   l2760 19BA                     l2752 19A4                     l2744 193E  
                   l2736 1934                     l2728 18FC                     l2680 17C8  
                   l2672 13FC                     l2664 13E6                     l2656 1380  
                   l2648 133A                     l2832 161A                     l2824 1584  
                   l2816 157A                     l2808 153E                     l2930 0738  
                   l2922 0710                     l2914 06E6                     l2906 06B6  
                   l2578 1AD6                     l2594 1C8C                     l2850 2236  
                   l2842 2226                     l2762 19BC                     l2746 1950  
                   l2738 193A                     l2682 17CE                     l2674 13FE  
                   l2658 1392                     l2834 161C                     l2826 1596  
                   l2818 1580                     l2940 074C                     l2932 073C  
                   l2924 0722                     l2916 06F6                     l2908 06C4  
                   l2596 1CA0                     l2860 224E                     l2852 223C  
                   l2844 222A                     l2836 21F6                     l2780 1A38  
                   l2772 1A12                     l2764 19CC                     l2748 1952  
                   l2692 17E0                     l2684 17D4                     l2676 140E  
                   l2828 1598                     l2950 0760                     l2942 0750  
                   l2934 0740                     l2926 0730                     l2918 06F8  
                   l2598 1CB4                     l2862 2254                     l2854 2240  
                   l2846 222E                     l2838 221E                     l2774 1A1A  
                   l2766 1A0E                     l2758 19A8                     l2694 17F2  
                   l2686 17DA                     l2678 17A4                     l2790 1496  
                   l2782 1454                     l2870 254A                     l2960 0774  
                   l2952 0764                     l2944 0754                     l2936 0744  
                   l2928 0734                     l2880 0630                     l2864 225A  
                   l2856 2244                     l2848 2232                     l2776 1A26  
                   l2696 17F6                     l2792 149C                     l2784 1466  
                   l2872 254C                     l2970 07EC                     l2962 079E  
                   l2954 0768                     l2946 0758                     l2938 0748  
                   l2890 066C                     l2882 063C                     l2866 2260  
                   l2858 224A                     l2778 1A28                     l2698 1806  
                   l2786 1478                     l2874 2550                     l2980 082C  
                   l2972 07F0                     l2964 07BA                     l2956 076C  
                   l2948 075C                     l2892 067C                     l2884 064A  
                   l2868 2266                     l2788 148A                     l2876 2552  
                   l2990 086E                     l2982 083C                     l2974 07FE  
                   l2966 07CA                     l2958 0770                     l2894 067E  
                   l2886 064C                     l2798 14A0                     l2878 2556  
                   l2992 087C                     l2976 0800                     l2968 07E0  
                   l2888 065C                     l2896 0686                     l2994 0888  
                   l2986 0850                     l2978 080A                     l2898 0696  
                   l2996 088C                     l2988 0860                     l2998 089A  
                   STR_1 0622                     STR_2 0622                     STR_3 0611  
                   u2010 0E68                     u2011 0E64                     u2100 0F6A  
                   u2020 0E7A                     u2004 0E3C                     u2101 0F66  
                   u2021 0E76                     u2005 0E38                     u3000 1DFE  
                   u2200 21D8                     u3001 1DFA                     u2201 21D4  
                   u3010 1E1E                     u2210 21E8                     u2130 0FD0  
                   u2114 0F80                     u2050 0EE0                     u2034 0E90  
                   u3011 1E1A                     u2211 21E4                     u2131 0FCC  
                   u2115 0F7C                     u2051 0EDC                     u2035 0E8C  
                   u3020 1E6E                     u2300 1746                     u2140 0FE2  
                   u2124 0FA4                     u2060 0EF2                     u2044 0EB4  
                   u2220 24B0                     u3100 0C82                     u3021 1E6A  
                   u2301 1742                     u2141 0FDE                     u2125 0FA0  
                   u2061 0EEE                     u2045 0EB0                     u2221 24AC  
                   u3101 0C7E                     u2310 1758                     u3110 0CCE  
                   u2311 1754                     u3111 0CCA                     u3031 0B04  
                   u2320 1770                     u2400 12D0                     u3120 0D38  
                   u3040 0B58                     u2321 176C                     u2401 12CC  
                   u3121 0D34                     u3041 0B54                     u2330 1792  
                   u2250 16A0                     u2234 164C                     u2154 0FF8  
                   u2090 0F58                     u2074 0F08                     u2170 236E  
                   u2410 133A                     u3130 0D60                     u3050 0B82  
                   u2331 178E                     u2251 169C                     u2235 1648  
                   u2155 0FF4                     u2091 0F54                     u2075 0F04  
                   u2171 236A                     u2411 1336                     u3131 0D5C  
                   u3051 0B7E                     u2244 166C                     u1700 10B6  
                   u2164 101C                     u2084 0F2C                     u2180 2386  
                   u2420 13A4                     u3140 0D78                     u3060 0B94  
                   u2245 1668                     u1701 10B2                     u2165 1018  
                   u2085 0F28                     u2181 2382                     u2501 1920  
                   u2341 1E82                     u2421 13A0                     u3141 0D74  
                   u3061 0B90                     u2270 16D0                     u1710 10D0  
                   u2190 23B0                     u2510 1962                     u2430 140E  
                   u3150 0D8A                     u3070 0BB8                     u2271 16CC  
                   u1711 10CC                     u2191 23AC                     u2511 195E  
                   u2351 1E94                     u2431 140A                     u3151 0D86  
                   u3071 0BB4                     u2600 065C                     u2264 16B6  
                   u2520 19CC                     u2360 1ECA                     u3160 0DA8  
                   u3080 0C1C                     u2601 0658                     u2265 16B2  
                   u2521 19C8                     u2441 17AE                     u2361 1EC6  
                   u3161 0DA4                     u3081 0C18                     u2610 066C  
                   u2530 1A38                     u2370 1F34                     u3170 0DBA  
                   u3090 0C62                     u2611 0668                     u2531 1A34  
                   u2451 17C0                     u2371 1F30                     u3171 0DB6  
                   u3091 0C5E                     u2700 07B8                     u2620 06AE  
                   u2284 16EE                     u1820 121E                     u1804 11D2  
                   u1740 112E                     u1724 10E2                     u1660 1046  
                   u2460 1806                     u1900 1BD0                     u2621 06AA  
                   u2285 16E8                     u1821 121A                     u1805 11CE  
                   u1741 112A                     u1725 10DE                     u1661 1042  
                   u2461 1802                     u2381 1282                     u2541 145E  
                   u1901 1BCC                     u2710 07E0                     u2630 06C4  
                   u2294 171E                     u1830 1238                     u1814 11F2  
                   u1750 1148                     u1734 1102                     u1670 1058  
                   u2470 1880                     u2550 1478                     u1910 1BF2  
                   u2711 07DC                     u2631 06C0                     u2295 1718  
                   u1831 1234                     u1815 11EE                     u1751 1144  
                   u1735 10FE                     u1671 1054                     u2471 187C  
                   u2391 1294                     u2551 1474                     u1911 1BEE  
                   u2800 0918                     u2720 07FE                     u2640 06D6  
                   u2480 18FC                     u2560 14C4                     u1920 1C1A  
                   u2801 0914                     u2721 07FA                     u2641 06D2  
                   u2481 18F8                     u2561 14C0                     u1921 1C16  
                   u2810 094E                     u2730 081E                     u2650 06E6  
                   u2570 155C                     u1930 1C4C                     u2811 094A  
                   u2731 081A                     u2651 06E2                     u2491 190E  
                   u2571 1558                     u1931 1C48                     u2900 0A18  
                   u2820 095E                     u2740 082C                     u2660 0722  
                   u1860 257A                     u1844 124A                     u1780 11A6  
                   u1764 115A                     u1684 106A                     u1940 2288  
                   u2580 15A8                     u2901 0A14                     u2821 095A  
                   u2741 0828                     u2661 071E                     u1861 2576  
                   u1845 1246                     u1781 11A2                     u1765 1156  
                   u1685 1066                     u1941 2284                     u2581 15A4  
                   u2910 0A32                     u2830 098A                     u2750 083C  
                   u2670 0730                     u2590 064A                     u1870 2548  
                   u1854 126A                     u1790 11C0                     u1774 117A  
                   u1694 108A                     u1950 22A6                     u2911 0A2E  
                   u2831 0986                     u2751 0838                     u2671 072C  
                   u2591 0646                     u1871 2544                     u1855 1266  
                   u1791 11BC                     u1775 1176                     u1695 1086  
                   u1951 22A2                     u2920 0A6C                     u2840 099A  
                   u2760 086E                     u2680 079E                     u1960 22C2  
                   u1880 1B74                     u2921 0A68                     u2841 0996  
                   u2761 086A                     u2681 079A                     u1961 22BE  
                   u1881 1B70                     u2930 0A7E                     u2850 09B6  
                   u2770 087C                     u2690 07B6                     u1970 0DF8  
                   u1890 1B96                     u2931 0A7A                     u2851 09B2  
                   u2771 0878                     u2691 07B0                     u1971 0DF4  
                   u1891 1B92                     u2940 0A8E                     u2860 09C6  
                   u2780 089A                     u1980 0E0A                     u2941 0A8A  
                   u2861 09C2                     u2781 0896                     u1981 0E06  
                   u2950 0AAE                     u2870 09D8                     u2790 08D2  
                   u2951 0AAA                     u2871 09D4                     u2791 08CE  
                   u2960 0AC0                     u2880 09EE                     u2961 0ABC  
                   u2881 09EA                     u2970 0ADC                     u2890 0A04  
                   u1994 0E1C                     u2971 0AD8                     u2891 0A00  
                   u1995 0E18                     u2980 1DA2                     u2981 1D9E  
                   u2990 1DE0                     u2991 1DDC              fomeLed@fome 0003  
                   _main 0AF0                     _petX 1452                     indf2 000FDF  
                   fsr1l 000FE1                     fsr2l 000FD9                     prodh 000FF4  
                   prodl 000FF3                     start 0000             ___param_bank 000000  
         pwmSet@porcento 000A          __end_of___aldiv 1C6E          __end_of___fladd 0AF0  
                  ?_main 0001                    ?_petX 000E                    _T2CON 000FCA  
        __end_of___lwdiv 22E2                    _PORTA 000F80                    _PORTB 000F81  
                  _PORTC 000F82                    _PORTD 000F83                    _PORTE 000F84  
                  _TRISA 000F92                    _TRISB 000F93                    _TRISC 000F94  
                  _TRISD 000F95                    _TRISE 000F96          __end_of_lcdData 2466  
        __end_of_lcdInit 226E          __end_of_fomeLed 1B62          __end_of_petFome 1A40  
        __end_of_pinMode 102A          __end_of_imprime 24B2                    _valor 0074  
                  main@i 00BC                    main@j 00B4                    petX@i 0040  
                  tablat 000FF5          __end_of_pwmInit 2564                    plusw1 000FE3  
                  plusw2 000FDB                    status 000FD8         __end_of_Delay2ms 254A  
   __end_of_digitalWrite 1278          __initialization 2062             __end_of_main 0DDC  
           __end_of_petX 162A       __size_of_Delay40us 0018                   ??_main 006E  
                 ??_petX 000F            __activetblptr 000002                   _CCPR1L 000FBE  
            petNao@F2430 0181              petNao@F2432 02C0                   ___flge 1D74  
              ??___aldiv 0009                ??___fladd 0009                   ___wmul 2508  
              ??___lwdiv 0005              petFun@F2436 0340              petFun@F2438 0300  
                 _kpInit 2586                   _kpRead 257C                   _funLed 1C6E  
                 _petNao 1278                   _petFun 17A4                   clear_0 20E8  
              ??_lcdData 0007                   isa$std 000001                ??_lcdInit 0009  
                 _pwmSet 22E2                ??_fomeLed 0001                ??_petFome 000D  
              ??_pinMode 0005                ??_imprime 000B             __mediumconst 0000  
                 tblptrh 000FF7                   tblptrl 000FF6                   tblptru 000FF8  
              ??_pwmInit 0011        __end_of_Delay40us 257C               ___flge@ff1 0001  
             ___flge@ff2 0005               __accesstop 0080  __end_of__initialization 20EE  
          ___rparam_used 000001              pinMode@type 0003           __pcstackCOMRAM 0001  
           __pidataBANK0 24B2             __pidataBANK1 23B2             __pidataBANK2 1F72  
           __pidataBANK3 20F8                ?_Delay2ms 0001       __size_of_atraso_ms 0064  
       petFome@pet_fome1 000D         petFome@pet_fome2 003D    __size_of_digitalWrite 024E  
     __size_of_petInicio 00FA                  ?___flge 0001               _lcdCommand 2178  
                ?___wmul 0001                  ?_kpInit 0001                  ?_kpRead 0001  
                ?_funLed 0001                  _CCP1CON 000FBD                  ?_petNao 0001  
                ?_petFun 0001               _kpDebounce 162A                  ?_pwmSet 0001  
             ??_Delay2ms 0002             _digitalWrite 102A                  __Hparam 0000  
                __Lparam 0000          kpDebounce@old_D 0006          kpDebounce@tempo 007B  
                ___aldiv 1B62          __size_of___flge 0104                  ___fladd 0630  
        __size_of___wmul 0026                  ___lwdiv 226E        __end_of_atraso_ms 23B2  
           __psmallconst 0600          __size_of_kpInit 000A          __size_of_kpRead 000A  
        __size_of_funLed 0106                  __pcinit 2062          __size_of_petNao 01DA  
        __size_of_petFun 0160                  _lcdData 2412                  __ramtop 0600  
                _lcdInit 21F6                  __ptext0 0AF0                  __ptext1 254A  
                __ptext2 24E2                  __ptext3 1B62                  __ptext4 1452  
                __ptext5 2466                  __ptext6 1278                  __ptext7 1E78  
                __ptext8 17A4                  __ptext9 1904          __size_of_pwmSet 006C  
                _fomeLed 1A40                  _display 007A                  _petFome 1904  
                _pinMode 0DDC                  _imprime 2466        __end_of_petInicio 1F72  
       ___aldiv@dividend 0001             petFome@F2442 0290             petFome@F2444 0260  
                _pwmInit 254A                Delay2ms@i 0002                  main@fun 00BB  
                main@pet 0080      kpDebounce@valorNovo 0072     end_of_initialization 20EE  
                petX@fun 000E                  petNao@i 0069                  petFun@i 0180  
          __Lmediumconst 0000            ?_pwmFrequency 000F         ___aldiv@quotient 000B  
                postdec1 000FE5              ?_lcdCommand 0001                  postinc0 000FEE  
            ?_kpDebounce 0001             petInicio@pet 0009           _valor@ssd$F207 0601  
            ___fladd@grs 0010           ??_pwmFrequency 0011                _Delay40us 2564  
         __end_of___flge 1E78               atraso_ms@i 0003               atraso_ms@j 0005  
             atraso_ms@k 0006           __end_of___wmul 252E           __end_of_kpInit 2590  
         __end_of_kpRead 2586   __end_of_valor@ssd$F207 0611           __end_of_funLed 1D74  
         __end_of_petNao 1452           __end_of_petFun 1904           __end_of_pwmSet 234E  
    start_initialization 2062        __size_of_Delay2ms 001C      __size_of_lcdCommand 007E  
    __size_of_kpDebounce 017A               ?_Delay40us 0001                 ??___flge 0009  
               ??___wmul 0005                 ??_kpInit 0001                 ??_kpRead 0003  
            __pdataBANK0 00BD              __pdataBANK1 0181              __pdataBANK2 0200  
            __pdataBANK3 0300                 ??_funLed 0001                 ??_petNao 0009  
               ??_petFun 000D                 ??_pwmSet 0008               petInicio@i 0069  
              ___fladd@a 0005                ___fladd@b 0001              __pbssCOMRAM 0070  
          __pcstackBANK0 0080            __pcstackBANK1 0100               pinMode@pin 0001  
             imprime@msg 0009         ___lwdiv@dividend 0001                 ?___aldiv 0001  
               ?___fladd 0001                 ?___lwdiv 0001                 ?_lcdData 0001  
               ?_lcdInit 0001                 ?_fomeLed 0001     __end_of_pwmFrequency 2508  
          lcdCommand@cmd 0008                _atraso_ms 234E              __smallconst 0600  
               ?_petFome 0001                 ?_pinMode 0001                 ?_imprime 0009  
               ?_pwmInit 0001         ___lwdiv@quotient 0005                _petInicio 1E78  
       pwmFrequency@freq 000F           atraso_ms@valor 0001          ___aldiv@divisor 0005  
        ___aldiv@counter 0009              ??_Delay40us 0001           ___wmul@product 0005  
           ??_lcdCommand 0007                main@F2464 0200             ??_kpDebounce 0001  
      ___wmul@multiplier 0001               ?_atraso_ms 0001          lcdCommand@old_D 0007  
              main@cont1 00B0                main@cont2 00B2    kpDebounce@valorAntigo 0070  
               _Delay2ms 252E                main@tecla 00B9                main@tempo 00B5  
              funLed@fun 0003                copy_data0 2076                copy_data1 2096  
              copy_data2 20B6                copy_data3 20D6               ?_petInicio 0001  
     __end_of_lcdCommand 21F6                petX@F2453 0230             lcdData@old_D 0008  
           lcdData@valor 0007       __end_of_kpDebounce 17A4                 __Hrparam 0000  
               __Lrparam 0000                petX@pet_X 000F         __size_of___aldiv 010C  
       __size_of___fladd 04C0         __size_of___lwdiv 0074           petNao@pet_nao1 0009  
         petNao@pet_nao2 0039         __size_of_lcdData 0054         __size_of_lcdInit 0078  
       __size_of_fomeLed 0122         __size_of_petFome 013C         __size_of_pinMode 024E  
       __size_of_imprime 004C          ___lwdiv@divisor 0003          ___lwdiv@counter 0007  
               __ptext10 22E2                 __ptext11 2508                 __ptext20 2564  
               __ptext12 226E                 __ptext21 257C                 __ptext13 2412  
               __ptext22 2586                 __ptext14 234E                 __ptext23 162A  
               __ptext15 21F6                 __ptext24 1C6E                 __ptext16 0DDC  
               __ptext25 1A40                 __ptext17 2178                 __ptext26 1D74  
               __ptext18 102A                 __ptext27 0630                 __ptext19 252E  
       __size_of_pwmInit 001A            __size_of_main 02EC            __size_of_petX 01D8  
             Delay40us@i 0001                 isa$xinst 000000    __size_of_pwmFrequency 0026  
         petFun@pet_fun1 0100           petFun@pet_fun2 0140                pwmSet@val 000B  
               main@fome 00BA              ??_atraso_ms 0003            ?_digitalWrite 0001  
               petX@fome 003F                 petFome@i 006D                 imprime@i 000D  
            ??_petInicio 0009           petInicio@F2420 00BD           petInicio@F2422 01B1  
      digitalWrite@value 0003             _pwmFrequency 24E2              kpDebounce@i 000A  
            kpDebounce@j 0009              kpDebounce@k 0007           ??_digitalWrite 0005  
           ___aldiv@sign 000A            ___fladd@signs 000D          digitalWrite@pin 0001  
           ___fladd@aexp 000E             ___fladd@bexp 000F  
